libyami.so.1:_Z13yamiTraceInitv
libyami.so.1:_Z15buildJpegHeaderRSt5arrayIhLm623EEiij
libyami.so.1:_Z15compare_and_setPaa
libyami.so.1:_Z15generateScanHdrRKSt10shared_ptrIN10YamiParser4JPEG10ScanHeaderEE
libyami.so.1:_Z16generateFrameHdrRKSt10shared_ptrIN10YamiParser4JPEG11FrameHeaderEEii
libyami.so.1:_Z16init_dequantizerP10_Vp9Parser
libyami.so.1:_Z18createVideoDecoderPKc
libyami.so.1:_Z18createVideoEncoderPKc
libyami.so.1:_Z19releaseVideoDecoderPN14YamiMediaCodec13IVideoDecoderE
libyami.so.1:_Z19releaseVideoEncoderPN14YamiMediaCodec13IVideoEncoderE
libyami.so.1:_Z19seg_get_base_qindexPK10_Vp9ParserPK12_Vp9FrameHdri
libyami.so.1:_Z20get_max_lb_tile_colsj
libyami.so.1:_Z20get_min_lb_tile_colsj
libyami.so.1:_Z20seg_get_filter_levelPK10_Vp9ParserPK12_Vp9FrameHdri
libyami.so.1:_Z22createVideoPostProcessPKc
libyami.so.1:_Z23releaseVideoPostProcessPN14YamiMediaCodec17IVideoPostProcessE
libyami.so.1:_Z24getVideoDecoderMimeTypesB5cxx11v
libyami.so.1:_Z24getVideoEncoderMimeTypesB5cxx11v
libyami.so.1:_Z28getVideoPostProcessMimeTypesB5cxx11v
libyami.so.1:_ZN10YamiParser11getHalfCeilEj
libyami.so.1:_ZN10YamiParser14Vp8BoolDecoder10InitializeEPKhm
libyami.so.1:_ZN10YamiParser14Vp8BoolDecoder11FillDecoderEv
libyami.so.1:_ZN10YamiParser14Vp8BoolDecoder11ReadLiteralEmPi
libyami.so.1:_ZN10YamiParser14Vp8BoolDecoder19ReadLiteralWithSignEmPi
libyami.so.1:_ZN10YamiParser14Vp8BoolDecoder7ReadBitEi
libyami.so.1:_ZN10YamiParser14Vp8BoolDecoder8GetRangeEv
libyami.so.1:_ZN10YamiParser14Vp8BoolDecoder8ReadBoolEPb
libyami.so.1:_ZN10YamiParser14Vp8BoolDecoder8ReadBoolEPbh
libyami.so.1:_ZN10YamiParser14Vp8BoolDecoder9BitOffsetEv
libyami.so.1:_ZN10YamiParser14Vp8BoolDecoder9GetBottomEv
libyami.so.1:_ZN10YamiParser14Vp8BoolDecoderC1Ev
libyami.so.1:_ZN10YamiParser14Vp8BoolDecoderC2Ev
libyami.so.1:_ZN10YamiParser14Vp8FrameHeaderC1Ev
libyami.so.1:_ZN10YamiParser14Vp8FrameHeaderC2Ev
libyami.so.1:_ZN10YamiParser4H26411SliceHeader11parseHeaderEPNS0_6ParserEPNS0_7NalUnitE
libyami.so.1:_ZN10YamiParser4H26411SliceHeader15predWeightTableERNS_9NalReaderEh
libyami.so.1:_ZN10YamiParser4H26411SliceHeader16decRefPicMarkingEPNS0_7NalUnitERNS_9NalReaderE
libyami.so.1:_ZN10YamiParser4H26411SliceHeader22refPicListModificationERNS_9NalReaderEPNS0_22RefPicListModificationES5_b
libyami.so.1:_ZN10YamiParser4H26411SliceHeaderC1Ev
libyami.so.1:_ZN10YamiParser4H26411SliceHeaderC2Ev
libyami.so.1:_ZN10YamiParser4H2643PPSC1Ev
libyami.so.1:_ZN10YamiParser4H2643PPSC2Ev
libyami.so.1:_ZN10YamiParser4H2643PPSD1Ev
libyami.so.1:_ZN10YamiParser4H2643PPSD2Ev
libyami.so.1:_ZN10YamiParser4H2646Parser13hrdParametersEPNS0_13HRDParametersERNS_9NalReaderE
libyami.so.1:_ZN10YamiParser4H2646Parser13vuiParametersERSt10shared_ptrINS0_3SPSEERNS_9NalReaderE
libyami.so.1:_ZN10YamiParser4H2646Parser8parsePpsERSt10shared_ptrINS0_3PPSEEPKNS0_7NalUnitE
libyami.so.1:_ZN10YamiParser4H2646Parser8parseSpsERSt10shared_ptrINS0_3SPSEEPKNS0_7NalUnitE
libyami.so.1:_ZN10YamiParser4H2647NalUnit12parseNalUnitEPKhm
libyami.so.1:_ZN10YamiParser4H2647NalUnit17parseMvcExtensionERNS_9BitReaderE
libyami.so.1:_ZN10YamiParser4H2647NalUnit17parseSvcExtensionERNS_9BitReaderE
libyami.so.1:_ZN10YamiParser4H26511SliceHeaderC1Ev
libyami.so.1:_ZN10YamiParser4H26511SliceHeaderC2Ev
libyami.so.1:_ZN10YamiParser4H26511SliceHeaderD1Ev
libyami.so.1:_ZN10YamiParser4H26511SliceHeaderD2Ev
libyami.so.1:_ZN10YamiParser4H2653PPSC1Ev
libyami.so.1:_ZN10YamiParser4H2653PPSC2Ev
libyami.so.1:_ZN10YamiParser4H2653SPSC1Ev
libyami.so.1:_ZN10YamiParser4H2653SPSC2Ev
libyami.so.1:_ZN10YamiParser4H2653VPSC1Ev
libyami.so.1:_ZN10YamiParser4H2653VPSC2Ev
libyami.so.1:_ZN10YamiParser4H2653VPSD1Ev
libyami.so.1:_ZN10YamiParser4H2653VPSD2Ev
libyami.so.1:_ZN10YamiParser4H2656Parser10parseSliceEPKNS0_7NalUnitEPNS0_11SliceHeaderE
libyami.so.1:_ZN10YamiParser4H2656Parser11stRefPicSetEPNS0_18ShortTermRefPicSetERNS_9NalReaderEhPNS0_3SPSE
libyami.so.1:_ZN10YamiParser4H2656Parser13hrdParametersEPNS0_13HRDParametersERNS_9NalReaderEhh
libyami.so.1:_ZN10YamiParser4H2656Parser13vuiParametersEPNS0_3SPSERNS_9NalReaderE
libyami.so.1:_ZN10YamiParser4H2656Parser15predWeightTableEPNS0_11SliceHeaderERNS_9NalReaderE
libyami.so.1:_ZN10YamiParser4H2656Parser15scalingListDataEPNS0_11ScalingListERNS_9NalReaderE
libyami.so.1:_ZN10YamiParser4H2656Parser16profileTierLevelEPNS0_16ProfileTierLevelERNS_9NalReaderEh
libyami.so.1:_ZN10YamiParser4H2656Parser21subLayerHrdParametersEPNS0_21SubLayerHRDParametersERNS_9NalReaderEjh
libyami.so.1:_ZN10YamiParser4H2656Parser22useDefaultScalingListsEPhS2_hh
libyami.so.1:_ZN10YamiParser4H2656Parser23refPicListsModificationEPNS0_11SliceHeaderERNS_9NalReaderEi
libyami.so.1:_ZN10YamiParser4H2656Parser8parsePpsEPKNS0_7NalUnitE
libyami.so.1:_ZN10YamiParser4H2656Parser8parseSpsEPKNS0_7NalUnitE
libyami.so.1:_ZN10YamiParser4H2656Parser8parseVpsEPKNS0_7NalUnitE
libyami.so.1:_ZN10YamiParser4H2657NalUnit15parseNaluHeaderEPKhm
libyami.so.1:_ZN10YamiParser4JPEG6Parser10nextMarkerEv
libyami.so.1:_ZN10YamiParser4JPEG6Parser11firstMarkerEv
libyami.so.1:_ZN10YamiParser4JPEG6Parser16registerCallbackERKNS0_6MarkerERKSt8functionIFNS1_14CallbackResultEvEE
libyami.so.1:_ZN10YamiParser4JPEG6Parser28registerStartOfFrameCallbackERKSt8functionIFNS1_14CallbackResultEvEE
libyami.so.1:_ZN10YamiParser4JPEG6Parser5parseEv
libyami.so.1:_ZN10YamiParser4JPEG6Parser8parseAPPEv
libyami.so.1:_ZN10YamiParser4JPEG6Parser8parseDACEv
libyami.so.1:_ZN10YamiParser4JPEG6Parser8parseDHTEv
libyami.so.1:_ZN10YamiParser4JPEG6Parser8parseDQTEv
libyami.so.1:_ZN10YamiParser4JPEG6Parser8parseDRIEv
libyami.so.1:_ZN10YamiParser4JPEG6Parser8parseEOIEv
libyami.so.1:_ZN10YamiParser4JPEG6Parser8parseSOFEbbb
libyami.so.1:_ZN10YamiParser4JPEG6Parser8parseSOIEv
libyami.so.1:_ZN10YamiParser4JPEG6Parser8parseSOSEv
libyami.so.1:_ZN10YamiParser4JPEG6Parser9skipBytesEj
libyami.so.1:_ZN10YamiParser4JPEG6ParserC1EPKhj
libyami.so.1:_ZN10YamiParser4JPEG6ParserC2EPKhj
libyami.so.1:_ZN10YamiParser4JPEG8DefaultsC1Ev
libyami.so.1:_ZN10YamiParser4JPEG8DefaultsC2Ev
libyami.so.1:_ZN10YamiParser9BitReader15loadDataToCacheEj
libyami.so.1:_ZN10YamiParser9BitReader4readERjj
libyami.so.1:_ZN10YamiParser9BitReader4readEj
libyami.so.1:_ZN10YamiParser9BitReader4skipEj
libyami.so.1:_ZN10YamiParser9BitReaderC1EPKhj
libyami.so.1:_ZN10YamiParser9BitReaderC2EPKhj
libyami.so.1:_ZN10YamiParser9BitWriter10flushCacheEv
libyami.so.1:_ZN10YamiParser9BitWriter10writeBytesEPhj
libyami.so.1:_ZN10YamiParser9BitWriter16getBitWriterDataEv
libyami.so.1:_ZN10YamiParser9BitWriter19writeToBytesAlignedEb
libyami.so.1:_ZN10YamiParser9BitWriter9writeBitsEjj
libyami.so.1:_ZN10YamiParser9BitWriterC1Ej
libyami.so.1:_ZN10YamiParser9BitWriterC2Ej
libyami.so.1:_ZN10YamiParser9NalReader15loadDataToCacheEj
libyami.so.1:_ZN10YamiParser9NalReader16rbspTrailingBitsEv
libyami.so.1:_ZN10YamiParser9NalReader6readSeERi
libyami.so.1:_ZN10YamiParser9NalReader6readSeEv
libyami.so.1:_ZN10YamiParser9NalReader6readUeERj
libyami.so.1:_ZN10YamiParser9NalReader6readUeEv
libyami.so.1:_ZN10YamiParser9NalReaderC1EPKhj
libyami.so.1:_ZN10YamiParser9NalReaderC2EPKhj
libyami.so.1:_ZN10YamiParser9Vp8Parser10ParseFrameEPKhmPNS_14Vp8FrameHeaderE
libyami.so.1:_ZN10YamiParser9Vp8Parser10ResetProbsEv
libyami.so.1:_ZN10YamiParser9Vp8Parser12ParseMVProbsEPNS_16Vp8EntropyHeaderEb
libyami.so.1:_ZN10YamiParser9Vp8Parser13ParseFrameTagEPNS_14Vp8FrameHeaderE
libyami.so.1:_ZN10YamiParser9Vp8Parser15ParseIntraProbsEPNS_16Vp8EntropyHeaderEbb
libyami.so.1:_ZN10YamiParser9Vp8Parser15ParsePartitionsEPNS_14Vp8FrameHeaderE
libyami.so.1:_ZN10YamiParser9Vp8Parser15ParseTokenProbsEPNS_16Vp8EntropyHeaderEb
libyami.so.1:_ZN10YamiParser9Vp8Parser16ParseFrameHeaderEPNS_14Vp8FrameHeaderE
libyami.so.1:_ZN10YamiParser9Vp8Parser21ParseLoopFilterHeaderEb
libyami.so.1:_ZN10YamiParser9Vp8Parser23ParseQuantizationHeaderEPNS_21Vp8QuantizationHeaderE
libyami.so.1:_ZN10YamiParser9Vp8Parser23ParseSegmentationHeaderEb
libyami.so.1:_ZN10YamiParser9Vp8ParserC1Ev
libyami.so.1:_ZN10YamiParser9Vp8ParserC2Ev
libyami.so.1:_ZN10YamiParser9Vp8ParserD1Ev
libyami.so.1:_ZN10YamiParser9Vp8ParserD2Ev
libyami.so.1:_ZN14YamiMediaCodec10AvcLayerID19calculateMiniRefNumEv
libyami.so.1:_ZN14YamiMediaCodec10AvcLayerIDC1ERK14VideoFrameRateRK21VideoTemporalLayerIDsh
libyami.so.1:_ZN14YamiMediaCodec10AvcLayerIDC2ERK14VideoFrameRateRK21VideoTemporalLayerIDsh
libyami.so.1:_ZN14YamiMediaCodec10Vp8LayerIDC1ERK14VideoFrameRateRK21VideoTemporalLayerIDsh
libyami.so.1:_ZN14YamiMediaCodec10Vp8LayerIDC2ERK14VideoFrameRateRK21VideoTemporalLayerIDsh
libyami.so.1:_ZN14YamiMediaCodec10addLatencyERKSt10shared_ptrINS_19VaapiDecPictureH265EE
libyami.so.1:_ZN14YamiMediaCodec10checkMMCO5EN10YamiParser4H26416DecRefPicMarkingE
libyami.so.1:_ZN14YamiMediaCodec10unmapImageEPvRK8_VAImage
libyami.so.1:_ZN14YamiMediaCodec11SurfacePool4initERKSt10shared_ptrI17_SurfaceAllocatorEjjjj
libyami.so.1:_ZN14YamiMediaCodec11SurfacePool5allocEv
libyami.so.1:_ZN14YamiMediaCodec11SurfacePool6createERKSt10shared_ptrI17_SurfaceAllocatorEjjjj
libyami.so.1:_ZN14YamiMediaCodec11SurfacePoolC1Ev
libyami.so.1:_ZN14YamiMediaCodec11SurfacePoolC2Ev
libyami.so.1:_ZN14YamiMediaCodec11SurfacePoolD1Ev
libyami.so.1:_ZN14YamiMediaCodec11SurfacePoolD2Ev
libyami.so.1:_ZN14YamiMediaCodec11VaapiBuffer3mapEv
libyami.so.1:_ZN14YamiMediaCodec11VaapiBuffer5getIDEv
libyami.so.1:_ZN14YamiMediaCodec11VaapiBuffer5unmapEv
libyami.so.1:_ZN14YamiMediaCodec11VaapiBuffer6createERKSt10shared_ptrINS_12VaapiContextEE12VABufferTypejPKvPPv
libyami.so.1:_ZN14YamiMediaCodec11VaapiBuffer7getSizeEv
libyami.so.1:_ZN14YamiMediaCodec11VaapiBufferC1ERKSt10shared_ptrINS_12VaapiDisplayEEjj
libyami.so.1:_ZN14YamiMediaCodec11VaapiBufferC2ERKSt10shared_ptrINS_12VaapiDisplayEEjj
libyami.so.1:_ZN14YamiMediaCodec11VaapiBufferD1Ev
libyami.so.1:_ZN14YamiMediaCodec11VaapiBufferD2Ev
libyami.so.1:_ZN14YamiMediaCodec11VaapiConfig6createERKSt10shared_ptrINS_12VaapiDisplayEE9VAProfile12VAEntrypointP15_VAConfigAttribiRS1_IS0_E
libyami.so.1:_ZN14YamiMediaCodec11VaapiConfigC1ERKSt10shared_ptrINS_12VaapiDisplayEEj
libyami.so.1:_ZN14YamiMediaCodec11VaapiConfigC2ERKSt10shared_ptrINS_12VaapiDisplayEEj
libyami.so.1:_ZN14YamiMediaCodec11VaapiConfigD1Ev
libyami.so.1:_ZN14YamiMediaCodec11VaapiConfigD2Ev
libyami.so.1:_ZN14YamiMediaCodec11dumpSurfaceEPvl
libyami.so.1:_ZN14YamiMediaCodec11getRtFormatEj
libyami.so.1:_ZN14YamiMediaCodec11guessFourccEPKc
libyami.so.1:_ZN14YamiMediaCodec11matchPicNumERKSt10shared_ptrINS_19VaapiDecPictureH264EEi
libyami.so.1:_ZN14YamiMediaCodec11matchPocLsbERKSt10shared_ptrINS_19VaapiDecPictureH265EEi
libyami.so.1:_ZN14YamiMediaCodec12DisplayCache11getInstanceEv
libyami.so.1:_ZN14YamiMediaCodec12DisplayCache13createDisplayERK13NativeDisplay
libyami.so.1:_ZN14YamiMediaCodec12VaapiContext6createERKSt10shared_ptrINS_11VaapiConfigEEiiiPji
libyami.so.1:_ZN14YamiMediaCodec12VaapiContextC1ERKSt10shared_ptrINS_11VaapiConfigEEj
libyami.so.1:_ZN14YamiMediaCodec12VaapiContextC2ERKSt10shared_ptrINS_11VaapiConfigEEj
libyami.so.1:_ZN14YamiMediaCodec12VaapiContextD1Ev
libyami.so.1:_ZN14YamiMediaCodec12VaapiContextD2Ev
libyami.so.1:_ZN14YamiMediaCodec12VaapiDisplay11getVaFormatEj
libyami.so.1:_ZN14YamiMediaCodec12VaapiDisplay11setRotationEi
libyami.so.1:_ZN14YamiMediaCodec12VaapiDisplay12isCompatibleERK13NativeDisplay
libyami.so.1:_ZN14YamiMediaCodec12VaapiDisplay6createERK13NativeDisplay
libyami.so.1:_ZN14YamiMediaCodec12VaapiDisplayD0Ev
libyami.so.1:_ZN14YamiMediaCodec12VaapiDisplayD1Ev
libyami.so.1:_ZN14YamiMediaCodec12VaapiDisplayD2Ev
libyami.so.1:_ZN14YamiMediaCodec12VaapiPicture4syncEv
libyami.so.1:_ZN14YamiMediaCodec12VaapiPicture6renderERSt10shared_ptrINS_11VaapiBufferEE
libyami.so.1:_ZN14YamiMediaCodec12VaapiPicture6renderERSt4pairISt10shared_ptrINS_11VaapiBufferEES4_E
libyami.so.1:_ZN14YamiMediaCodec12VaapiPicture6renderEv
libyami.so.1:_ZN14YamiMediaCodec12VaapiPicture9addObjectERSt6vectorISt10shared_ptrINS_11VaapiBufferEESaIS4_EERKS4_
libyami.so.1:_ZN14YamiMediaCodec12VaapiPicture9addObjectERSt6vectorISt4pairISt10shared_ptrINS_11VaapiBufferEES5_ESaIS6_EERKS5_SB_
libyami.so.1:_ZN14YamiMediaCodec12VaapiPictureC1ERKSt10shared_ptrINS_12VaapiContextEERKS1_INS_12VaapiSurfaceEEl
libyami.so.1:_ZN14YamiMediaCodec12VaapiPictureC1Ev
libyami.so.1:_ZN14YamiMediaCodec12VaapiPictureC2ERKSt10shared_ptrINS_12VaapiContextEERKS1_INS_12VaapiSurfaceEEl
libyami.so.1:_ZN14YamiMediaCodec12VaapiPictureC2Ev
libyami.so.1:_ZN14YamiMediaCodec12VaapiSurface5getIDEv
libyami.so.1:_ZN14YamiMediaCodec12VaapiSurface7getCropERjS1_S1_S1_
libyami.so.1:_ZN14YamiMediaCodec12VaapiSurface7setCropEjjjj
libyami.so.1:_ZN14YamiMediaCodec12VaapiSurface9getFourccEv
libyami.so.1:_ZN14YamiMediaCodec12VaapiSurfaceC1ERKSt10shared_ptrI10VideoFrameE
libyami.so.1:_ZN14YamiMediaCodec12VaapiSurfaceC1Eljjj
libyami.so.1:_ZN14YamiMediaCodec12VaapiSurfaceC2ERKSt10shared_ptrI10VideoFrameE
libyami.so.1:_ZN14YamiMediaCodec12VaapiSurfaceC2Eljjj
libyami.so.1:_ZN14YamiMediaCodec13ascComparePocERKSt10shared_ptrINS_19VaapiDecPictureH264EES4_
libyami.so.1:_ZN14YamiMediaCodec13decComparePocERKSt10shared_ptrINS_19VaapiDecPictureH264EES4_
libyami.so.1:_ZN14YamiMediaCodec13getSystemTimeEv
libyami.so.1:_ZN14YamiMediaCodec14Vp8EncoderSvct11getRefFlagsERNS_8RefFlagsEh
libyami.so.1:_ZN14YamiMediaCodec14Vp8EncoderSvct11resetRefNumEv
libyami.so.1:_ZN14YamiMediaCodec14clearReferenceERKSt10shared_ptrINS_19VaapiDecPictureH265EE
libyami.so.1:_ZN14YamiMediaCodec14isOutputNeededERKSt10shared_ptrINS_19VaapiDecPictureH264EE
libyami.so.1:_ZN14YamiMediaCodec14isOutputNeededERKSt10shared_ptrINS_19VaapiDecPictureH265EE
libyami.so.1:_ZN14YamiMediaCodec14st_ref_pic_setEPN10YamiParser9BitWriterEiRKNS_8shortRFSE
libyami.so.1:_ZN14YamiMediaCodec14unrefAllocatorEP17_SurfaceAllocator
libyami.so.1:_ZN14YamiMediaCodec15TemporalLayerID18calculateFramerateERK14VideoFrameRate
libyami.so.1:_ZN14YamiMediaCodec15TemporalLayerIDC1ERK14VideoFrameRateRK21VideoTemporalLayerIDsPKhh
libyami.so.1:_ZN14YamiMediaCodec15TemporalLayerIDC2ERK14VideoFrameRateRK21VideoTemporalLayerIDsPKhh
libyami.so.1:_ZN14YamiMediaCodec15VaapiDecPicture6decodeEv
libyami.so.1:_ZN14YamiMediaCodec15VaapiDecPicture8doRenderEv
libyami.so.1:_ZN14YamiMediaCodec15VaapiDecPictureC1ERKSt10shared_ptrINS_12VaapiContextEERKS1_INS_12VaapiSurfaceEEl
libyami.so.1:_ZN14YamiMediaCodec15VaapiDecPictureC1Ev
libyami.so.1:_ZN14YamiMediaCodec15VaapiDecPictureC2ERKSt10shared_ptrINS_12VaapiContextEERKS1_INS_12VaapiSurfaceEEl
libyami.so.1:_ZN14YamiMediaCodec15VaapiDecPictureC2Ev
libyami.so.1:_ZN14YamiMediaCodec15VaapiDecoderVP813decodePictureEv
libyami.so.1:_ZN14YamiMediaCodec15VaapiDecoderVP813ensureContextEv
libyami.so.1:_ZN14YamiMediaCodec15VaapiDecoderVP814fillSliceParamEP26_VASliceParameterBufferVP8
libyami.so.1:_ZN14YamiMediaCodec15VaapiDecoderVP815allocNewPictureEv
libyami.so.1:_ZN14YamiMediaCodec15VaapiDecoderVP816fillPictureParamERKSt10shared_ptrINS_15VaapiDecPictureEE
libyami.so.1:_ZN14YamiMediaCodec15VaapiDecoderVP817ensureQuantMatrixERKSt10shared_ptrINS_15VaapiDecPictureEE
libyami.so.1:_ZN14YamiMediaCodec15VaapiDecoderVP819targetTemporalFrameEv
libyami.so.1:_ZN14YamiMediaCodec15VaapiDecoderVP822ensureProbabilityTableERKSt10shared_ptrINS_15VaapiDecPictureEE
libyami.so.1:_ZN14YamiMediaCodec15VaapiDecoderVP823updateReferencePicturesEv
libyami.so.1:_ZN14YamiMediaCodec15VaapiDecoderVP84stopEv
libyami.so.1:_ZN14YamiMediaCodec15VaapiDecoderVP85flushEb
libyami.so.1:_ZN14YamiMediaCodec15VaapiDecoderVP85flushEv
libyami.so.1:_ZN14YamiMediaCodec15VaapiDecoderVP85resetEP17VideoConfigBuffer
libyami.so.1:_ZN14YamiMediaCodec15VaapiDecoderVP85startEP17VideoConfigBuffer
libyami.so.1:_ZN14YamiMediaCodec15VaapiDecoderVP86decodeEP17VideoDecodeBuffer
libyami.so.1:_ZN14YamiMediaCodec15VaapiDecoderVP8C1Ev
libyami.so.1:_ZN14YamiMediaCodec15VaapiDecoderVP8C2Ev
libyami.so.1:_ZN14YamiMediaCodec15VaapiDecoderVP8D0Ev
libyami.so.1:_ZN14YamiMediaCodec15VaapiDecoderVP8D1Ev
libyami.so.1:_ZN14YamiMediaCodec15VaapiDecoderVP8D2Ev
libyami.so.1:_ZN14YamiMediaCodec15VaapiDecoderVP911ensureSliceERKSt10shared_ptrINS_15VaapiDecPictureEEPKvi
libyami.so.1:_ZN14YamiMediaCodec15VaapiDecoderVP913ensureContextEPK12_Vp9FrameHdr
libyami.so.1:_ZN14YamiMediaCodec15VaapiDecoderVP913ensurePictureERKSt10shared_ptrINS_15VaapiDecPictureEEPK12_Vp9FrameHdr
libyami.so.1:_ZN14YamiMediaCodec15VaapiDecoderVP913fillReferenceEP31_VADecPictureParameterBufferVP9PK12_Vp9FrameHdr
libyami.so.1:_ZN14YamiMediaCodec15VaapiDecoderVP915updateReferenceERKSt10shared_ptrINS_15VaapiDecPictureEEPK12_Vp9FrameHdr
libyami.so.1:_ZN14YamiMediaCodec15VaapiDecoderVP94stopEv
libyami.so.1:_ZN14YamiMediaCodec15VaapiDecoderVP95flushEb
libyami.so.1:_ZN14YamiMediaCodec15VaapiDecoderVP95flushEv
libyami.so.1:_ZN14YamiMediaCodec15VaapiDecoderVP95resetEP17VideoConfigBuffer
libyami.so.1:_ZN14YamiMediaCodec15VaapiDecoderVP95startEP17VideoConfigBuffer
libyami.so.1:_ZN14YamiMediaCodec15VaapiDecoderVP96decodeEP17VideoDecodeBuffer
libyami.so.1:_ZN14YamiMediaCodec15VaapiDecoderVP96decodeEPK12_Vp9FrameHdrPKhjm
libyami.so.1:_ZN14YamiMediaCodec15VaapiDecoderVP96decodeEPKhjm
libyami.so.1:_ZN14YamiMediaCodec15VaapiDecoderVP9C1Ev
libyami.so.1:_ZN14YamiMediaCodec15VaapiDecoderVP9C2Ev
libyami.so.1:_ZN14YamiMediaCodec15VaapiDecoderVP9D0Ev
libyami.so.1:_ZN14YamiMediaCodec15VaapiDecoderVP9D1Ev
libyami.so.1:_ZN14YamiMediaCodec15VaapiDecoderVP9D2Ev
libyami.so.1:_ZN14YamiMediaCodec15VaapiEncPicture15addPackedHeaderE21VAEncPackedHeaderTypePKvj
libyami.so.1:_ZN14YamiMediaCodec15VaapiEncPicture6encodeEv
libyami.so.1:_ZN14YamiMediaCodec15VaapiEncPicture8doRenderEv
libyami.so.1:_ZN14YamiMediaCodec15VaapiEncPicture9getOutputEP20VideoEncOutputBuffer
libyami.so.1:_ZN14YamiMediaCodec15VaapiEncPictureC1ERKSt10shared_ptrINS_12VaapiContextEERKS1_INS_12VaapiSurfaceEEl
libyami.so.1:_ZN14YamiMediaCodec15VaapiEncPictureC2ERKSt10shared_ptrINS_12VaapiContextEERKS1_INS_12VaapiSurfaceEEl
libyami.so.1:_ZN14YamiMediaCodec15VaapiEncoderVP811resetParamsEv
libyami.so.1:_ZN14YamiMediaCodec15VaapiEncoderVP813encodePictureERKSt10shared_ptrINS_18VaapiEncPictureVP8EE
libyami.so.1:_ZN14YamiMediaCodec15VaapiEncoderVP813ensurePictureERKSt10shared_ptrINS_18VaapiEncPictureVP8EERKS1_INS_12VaapiSurfaceEERNS_8RefFlagsE
libyami.so.1:_ZN14YamiMediaCodec15VaapiEncoderVP813ensureQMatrixERKSt10shared_ptrINS_18VaapiEncPictureVP8EE
libyami.so.1:_ZN14YamiMediaCodec15VaapiEncoderVP813getMaxOutSizeEPj
libyami.so.1:_ZN14YamiMediaCodec15VaapiEncoderVP813getParametersE20VideoParamConfigTypePv
libyami.so.1:_ZN14YamiMediaCodec15VaapiEncoderVP813setParametersE20VideoParamConfigTypePv
libyami.so.1:_ZN14YamiMediaCodec15VaapiEncoderVP814ensureSequenceERKSt10shared_ptrINS_18VaapiEncPictureVP8EE
libyami.so.1:_ZN14YamiMediaCodec15VaapiEncoderVP816ensureMiscParamsEPNS_15VaapiEncPictureE
libyami.so.1:_ZN14YamiMediaCodec15VaapiEncoderVP819referenceListUpdateERKSt10shared_ptrINS_18VaapiEncPictureVP8EERKS1_INS_12VaapiSurfaceEERKNS_8RefFlagsE
libyami.so.1:_ZN14YamiMediaCodec15VaapiEncoderVP84stopEv
libyami.so.1:_ZN14YamiMediaCodec15VaapiEncoderVP85flushEv
libyami.so.1:_ZN14YamiMediaCodec15VaapiEncoderVP85startEv
libyami.so.1:_ZN14YamiMediaCodec15VaapiEncoderVP88doEncodeERKSt10shared_ptrINS_12VaapiSurfaceEEmb
libyami.so.1:_ZN14YamiMediaCodec15VaapiEncoderVP8C1Ev
libyami.so.1:_ZN14YamiMediaCodec15VaapiEncoderVP8C2Ev
libyami.so.1:_ZN14YamiMediaCodec15VaapiEncoderVP8D0Ev
libyami.so.1:_ZN14YamiMediaCodec15VaapiEncoderVP8D1Ev
libyami.so.1:_ZN14YamiMediaCodec15VaapiEncoderVP8D2Ev
libyami.so.1:_ZN14YamiMediaCodec15VaapiEncoderVP911resetParamsEv
libyami.so.1:_ZN14YamiMediaCodec15VaapiEncoderVP913encodePictureERKSt10shared_ptrINS_18VaapiEncPictureVP9EE
libyami.so.1:_ZN14YamiMediaCodec15VaapiEncoderVP913ensurePictureERKSt10shared_ptrINS_18VaapiEncPictureVP9EERKS1_INS_12VaapiSurfaceEE
libyami.so.1:_ZN14YamiMediaCodec15VaapiEncoderVP913ensureQMatrixERKSt10shared_ptrINS_18VaapiEncPictureVP9EE
libyami.so.1:_ZN14YamiMediaCodec15VaapiEncoderVP913getMaxOutSizeEPj
libyami.so.1:_ZN14YamiMediaCodec15VaapiEncoderVP913getParametersE20VideoParamConfigTypePv
libyami.so.1:_ZN14YamiMediaCodec15VaapiEncoderVP913setParametersE20VideoParamConfigTypePv
libyami.so.1:_ZN14YamiMediaCodec15VaapiEncoderVP914ensureSequenceERKSt10shared_ptrINS_18VaapiEncPictureVP9EE
libyami.so.1:_ZN14YamiMediaCodec15VaapiEncoderVP919referenceListUpdateERKSt10shared_ptrINS_18VaapiEncPictureVP9EERKS1_INS_12VaapiSurfaceEE
libyami.so.1:_ZN14YamiMediaCodec15VaapiEncoderVP94fillEP31_VAEncPictureParameterBufferVP9RKSt10shared_ptrINS_18VaapiEncPictureVP9EERKS3_INS_12VaapiSurfaceEE
libyami.so.1:_ZN14YamiMediaCodec15VaapiEncoderVP94stopEv
libyami.so.1:_ZN14YamiMediaCodec15VaapiEncoderVP95flushEv
libyami.so.1:_ZN14YamiMediaCodec15VaapiEncoderVP95startEv
libyami.so.1:_ZN14YamiMediaCodec15VaapiEncoderVP98doEncodeERKSt10shared_ptrINS_12VaapiSurfaceEEmb
libyami.so.1:_ZN14YamiMediaCodec15VaapiEncoderVP9C1Ev
libyami.so.1:_ZN14YamiMediaCodec15VaapiEncoderVP9C2Ev
libyami.so.1:_ZN14YamiMediaCodec15VaapiEncoderVP9D0Ev
libyami.so.1:_ZN14YamiMediaCodec15VaapiEncoderVP9D1Ev
libyami.so.1:_ZN14YamiMediaCodec15VaapiEncoderVP9D2Ev
libyami.so.1:_ZN14YamiMediaCodec15VaapiVppPicture12editVppParamERP30_VAProcPipelineParameterBuffer
libyami.so.1:_ZN14YamiMediaCodec15VaapiVppPicture7processEv
libyami.so.1:_ZN14YamiMediaCodec15VaapiVppPicture8doRenderEv
libyami.so.1:_ZN14YamiMediaCodec15VaapiVppPictureC1ERKSt10shared_ptrINS_12VaapiContextEERKS1_INS_12VaapiSurfaceEE
libyami.so.1:_ZN14YamiMediaCodec15VaapiVppPictureC2ERKSt10shared_ptrINS_12VaapiContextEERKS1_INS_12VaapiSurfaceEE
libyami.so.1:_ZN14YamiMediaCodec15guessResolutionEPKcRiS2_
libyami.so.1:_ZN14YamiMediaCodec15isSublayerNoRefEPKN10YamiParser4H2657NalUnitE
libyami.so.1:_ZN14YamiMediaCodec16VaapiCodedBuffer3mapEv
libyami.so.1:_ZN14YamiMediaCodec16VaapiCodedBuffer4sizeEv
libyami.so.1:_ZN14YamiMediaCodec16VaapiCodedBuffer6createERKSt10shared_ptrINS_12VaapiContextEEj
libyami.so.1:_ZN14YamiMediaCodec16VaapiCodedBuffer8copyIntoEPv
libyami.so.1:_ZN14YamiMediaCodec16VaapiDecoderBase11releaseLockEb
libyami.so.1:_ZN14YamiMediaCodec16VaapiDecoderBase11terminateVAEv
libyami.so.1:_ZN14YamiMediaCodec16VaapiDecoderBase12getDisplayIDEv
libyami.so.1:_ZN14YamiMediaCodec16VaapiDecoderBase12setAllocatorEP17_SurfaceAllocator
libyami.so.1:_ZN14YamiMediaCodec16VaapiDecoderBase13createPictureERSt10shared_ptrINS_15VaapiDecPictureEEl
libyami.so.1:_ZN14YamiMediaCodec16VaapiDecoderBase13createSurfaceEv
libyami.so.1:_ZN14YamiMediaCodec16VaapiDecoderBase13ensureProfileE9VAProfile
libyami.so.1:_ZN14YamiMediaCodec16VaapiDecoderBase13getFormatInfoEv
libyami.so.1:_ZN14YamiMediaCodec16VaapiDecoderBase13outputPictureERKSt10shared_ptrINS_15VaapiDecPictureEE
libyami.so.1:_ZN14YamiMediaCodec16VaapiDecoderBase15createAllocatorEv
libyami.so.1:_ZN14YamiMediaCodec16VaapiDecoderBase16setNativeDisplayEP13NativeDisplay
libyami.so.1:_ZN14YamiMediaCodec16VaapiDecoderBase17ensureSurfacePoolEv
libyami.so.1:_ZN14YamiMediaCodec16VaapiDecoderBase4stopEv
libyami.so.1:_ZN14YamiMediaCodec16VaapiDecoderBase5flushEv
libyami.so.1:_ZN14YamiMediaCodec16VaapiDecoderBase5resetEP17VideoConfigBuffer
libyami.so.1:_ZN14YamiMediaCodec16VaapiDecoderBase5startEP17VideoConfigBuffer
libyami.so.1:_ZN14YamiMediaCodec16VaapiDecoderBase7setupVAEj9VAProfile
libyami.so.1:_ZN14YamiMediaCodec16VaapiDecoderBase9getOutputEv
libyami.so.1:_ZN14YamiMediaCodec16VaapiDecoderBase9setFormatEjjjjjj
libyami.so.1:_ZN14YamiMediaCodec16VaapiDecoderBaseC1Ev
libyami.so.1:_ZN14YamiMediaCodec16VaapiDecoderBaseC2Ev
libyami.so.1:_ZN14YamiMediaCodec16VaapiDecoderBaseD0Ev
libyami.so.1:_ZN14YamiMediaCodec16VaapiDecoderBaseD1Ev
libyami.so.1:_ZN14YamiMediaCodec16VaapiDecoderBaseD2Ev
libyami.so.1:_ZN14YamiMediaCodec16VaapiDecoderH26410decodeNaluEPN10YamiParser4H2647NalUnitE
libyami.so.1:_ZN14YamiMediaCodec16VaapiDecoderH26411decodeSliceEPN10YamiParser4H2647NalUnitE
libyami.so.1:_ZN14YamiMediaCodec16VaapiDecoderH26411fillPictureERKSt10shared_ptrINS_19VaapiDecPictureH264EEPKN10YamiParser4H26411SliceHeaderE
libyami.so.1:_ZN14YamiMediaCodec16VaapiDecoderH26412fillIqMatrixERKSt10shared_ptrINS_19VaapiDecPictureH264EEPKN10YamiParser4H26411SliceHeaderE
libyami.so.1:_ZN14YamiMediaCodec16VaapiDecoderH26413createPictureEPKN10YamiParser4H26411SliceHeaderEPKNS2_7NalUnitE
libyami.so.1:_ZN14YamiMediaCodec16VaapiDecoderH26413createSurfaceEPKN10YamiParser4H26411SliceHeaderE
libyami.so.1:_ZN14YamiMediaCodec16VaapiDecoderH26413decodeCurrentEv
libyami.so.1:_ZN14YamiMediaCodec16VaapiDecoderH26413ensureContextERKSt10shared_ptrIN10YamiParser4H2643SPSEE
libyami.so.1:_ZN14YamiMediaCodec16VaapiDecoderH26413fillReferenceEP14_VAPictureH264m
libyami.so.1:_ZN14YamiMediaCodec16VaapiDecoderH26413outputPictureERKSt10shared_ptrINS_19VaapiDecPictureH264EE
libyami.so.1:_ZN14YamiMediaCodec16VaapiDecoderH26418fillReferenceIndexEP27_VASliceParameterBufferH264PKN10YamiParser4H26411SliceHeaderE
libyami.so.1:_ZN14YamiMediaCodec16VaapiDecoderH26419decodeAvcRecordDataEPhi
libyami.so.1:_ZN14YamiMediaCodec16VaapiDecoderH26419fillPredWeightTableEP27_VASliceParameterBufferH264PKN10YamiParser4H26411SliceHeaderE
libyami.so.1:_ZN14YamiMediaCodec16VaapiDecoderH26422isDecodeContextChangedERKSt10shared_ptrIN10YamiParser4H2643SPSEE
libyami.so.1:_ZN14YamiMediaCodec16VaapiDecoderH26425fillReferenceIndexForListEP27_VASliceParameterBufferH264PKN10YamiParser4H26411SliceHeaderERSt6vectorISt10shared_ptrINS_19VaapiDecPictureH264EESaISB_EEb
libyami.so.1:_ZN14YamiMediaCodec16VaapiDecoderH2643DPB10calcPicNumERKSt10shared_ptrINS_19VaapiDecPictureH264EEPKN10YamiParser4H26411SliceHeaderE
libyami.so.1:_ZN14YamiMediaCodec16VaapiDecoderH2643DPB11clearRefSetEv
libyami.so.1:_ZN14YamiMediaCodec16VaapiDecoderH2643DPB12printRefListEv
libyami.so.1:_ZN14YamiMediaCodec16VaapiDecoderH2643DPB12removeUnusedEv
libyami.so.1:_ZN14YamiMediaCodec16VaapiDecoderH2643DPB13initBSliceRefERKSt10shared_ptrINS_19VaapiDecPictureH264EEPKN10YamiParser4H26411SliceHeaderE
libyami.so.1:_ZN14YamiMediaCodec16VaapiDecoderH2643DPB13initPSliceRefERKSt10shared_ptrINS_19VaapiDecPictureH264EEPKN10YamiParser4H26411SliceHeaderE
libyami.so.1:_ZN14YamiMediaCodec16VaapiDecoderH2643DPB13initReferenceERKSt10shared_ptrINS_19VaapiDecPictureH264EEPKN10YamiParser4H26411SliceHeaderE
libyami.so.1:_ZN14YamiMediaCodec16VaapiDecoderH2643DPB13markReferenceERKSt10shared_ptrINS_19VaapiDecPictureH264EE
libyami.so.1:_ZN14YamiMediaCodec16VaapiDecoderH2643DPB16outputReadyFrameERKSt10shared_ptrINS_19VaapiDecPictureH264EE
libyami.so.1:_ZN14YamiMediaCodec16VaapiDecoderH2643DPB17initReferenceListERKSt10shared_ptrINS_19VaapiDecPictureH264EEPKN10YamiParser4H26411SliceHeaderE
libyami.so.1:_ZN14YamiMediaCodec16VaapiDecoderH2643DPB19modifyReferenceListERKSt10shared_ptrINS_19VaapiDecPictureH264EEPKN10YamiParser4H26411SliceHeaderERSt6vectorIS4_SaIS4_EEh
libyami.so.1:_ZN14YamiMediaCodec16VaapiDecoderH2643DPB21adaptiveMarkReferenceERKSt10shared_ptrINS_19VaapiDecPictureH264EE
libyami.so.1:_ZN14YamiMediaCodec16VaapiDecoderH2643DPB23processFrameNumWithGapsERKSt10shared_ptrINS_19VaapiDecPictureH264EEPKN10YamiParser4H26411SliceHeaderE
libyami.so.1:_ZN14YamiMediaCodec16VaapiDecoderH2643DPB26slidingWindowMarkReferenceERKSt10shared_ptrINS_19VaapiDecPictureH264EE
libyami.so.1:_ZN14YamiMediaCodec16VaapiDecoderH2643DPB3addERKSt10shared_ptrINS_19VaapiDecPictureH264EE
libyami.so.1:_ZN14YamiMediaCodec16VaapiDecoderH2643DPB4bumpEv
libyami.so.1:_ZN14YamiMediaCodec16VaapiDecoderH2643DPB4initERKSt10shared_ptrINS_19VaapiDecPictureH264EES6_PKN10YamiParser4H26411SliceHeaderEPKNS8_7NalUnitEbbj
libyami.so.1:_ZN14YamiMediaCodec16VaapiDecoderH2643DPB5flushEv
libyami.so.1:_ZN14YamiMediaCodec16VaapiDecoderH2643DPB6isFullEv
libyami.so.1:_ZN14YamiMediaCodec16VaapiDecoderH2643DPB6outputERKSt10shared_ptrINS_19VaapiDecPictureH264EE
libyami.so.1:_ZN14YamiMediaCodec16VaapiDecoderH2643DPB7bumpAllEv
libyami.so.1:_ZN14YamiMediaCodec16VaapiDecoderH2643DPB7calcPocERKSt10shared_ptrINS_19VaapiDecPictureH264EEPKN10YamiParser4H26411SliceHeaderE
libyami.so.1:_ZN14YamiMediaCodec16VaapiDecoderH2643DPB7forEachESt8functionIFvRKSt10shared_ptrINS_19VaapiDecPictureH264EEEE
libyami.so.1:_ZN14YamiMediaCodec16VaapiDecoderH2643DPBC1ESt8functionIF10YamiStatusRKSt10shared_ptrINS_19VaapiDecPictureH264EEEE
libyami.so.1:_ZN14YamiMediaCodec16VaapiDecoderH2643DPBC2ESt8functionIF10YamiStatusRKSt10shared_ptrINS_19VaapiDecPictureH264EEEE
libyami.so.1:_ZN14YamiMediaCodec16VaapiDecoderH2645flushEv
libyami.so.1:_ZN14YamiMediaCodec16VaapiDecoderH2645startEP17VideoConfigBuffer
libyami.so.1:_ZN14YamiMediaCodec16VaapiDecoderH2646decodeEP17VideoDecodeBuffer
libyami.so.1:_ZN14YamiMediaCodec16VaapiDecoderH2649decodePpsEPN10YamiParser4H2647NalUnitE
libyami.so.1:_ZN14YamiMediaCodec16VaapiDecoderH2649decodeSpsEPN10YamiParser4H2647NalUnitE
libyami.so.1:_ZN14YamiMediaCodec16VaapiDecoderH2649fillSliceERKSt10shared_ptrINS_19VaapiDecPictureH264EEPKN10YamiParser4H26411SliceHeaderEPKNS7_7NalUnitE
libyami.so.1:_ZN14YamiMediaCodec16VaapiDecoderH264C1Ev
libyami.so.1:_ZN14YamiMediaCodec16VaapiDecoderH264C2Ev
libyami.so.1:_ZN14YamiMediaCodec16VaapiDecoderH264D0Ev
libyami.so.1:_ZN14YamiMediaCodec16VaapiDecoderH264D1Ev
libyami.so.1:_ZN14YamiMediaCodec16VaapiDecoderH264D2Ev
libyami.so.1:_ZN14YamiMediaCodec16VaapiDecoderH26510decodeNaluEPN10YamiParser4H2657NalUnitE
libyami.so.1:_ZN14YamiMediaCodec16VaapiDecoderH26511decodeSliceEPN10YamiParser4H2657NalUnitE
libyami.so.1:_ZN14YamiMediaCodec16VaapiDecoderH26511fillPictureERKSt10shared_ptrINS_19VaapiDecPictureH265EEPKN10YamiParser4H26511SliceHeaderE
libyami.so.1:_ZN14YamiMediaCodec16VaapiDecoderH26512fillIqMatrixERKSt10shared_ptrINS_19VaapiDecPictureH265EEPKN10YamiParser4H26511SliceHeaderE
libyami.so.1:_ZN14YamiMediaCodec16VaapiDecoderH26512getVaProfileEPKN10YamiParser4H2653SPSE
libyami.so.1:_ZN14YamiMediaCodec16VaapiDecoderH26513createPictureERSt10shared_ptrINS_19VaapiDecPictureH265EEPKN10YamiParser4H26511SliceHeaderEPKNS6_7NalUnitE
libyami.so.1:_ZN14YamiMediaCodec16VaapiDecoderH26513createSurfaceEPKN10YamiParser4H26511SliceHeaderE
libyami.so.1:_ZN14YamiMediaCodec16VaapiDecoderH26513decodeCurrentEv
libyami.so.1:_ZN14YamiMediaCodec16VaapiDecoderH26513ensureContextEPKN10YamiParser4H2653SPSE
libyami.so.1:_ZN14YamiMediaCodec16VaapiDecoderH26513fillReferenceEP14_VAPictureHEVCRiRKSt6vectorIPNS_19VaapiDecPictureH265ESaIS6_EEj
libyami.so.1:_ZN14YamiMediaCodec16VaapiDecoderH26513fillReferenceEP14_VAPictureHEVCi
libyami.so.1:_ZN14YamiMediaCodec16VaapiDecoderH26513getRefPicListERSt6vectorIPNS_19VaapiDecPictureH265ESaIS3_EERKS5_S8_hbPKj
libyami.so.1:_ZN14YamiMediaCodec16VaapiDecoderH26513outputPictureERKSt10shared_ptrINS_19VaapiDecPictureH265EE
libyami.so.1:_ZN14YamiMediaCodec16VaapiDecoderH26514decodeParamSetEPN10YamiParser4H2657NalUnitE
libyami.so.1:_ZN14YamiMediaCodec16VaapiDecoderH26518fillReferenceIndexEP27_VASliceParameterBufferHEVCPKN10YamiParser4H26511SliceHeaderE
libyami.so.1:_ZN14YamiMediaCodec16VaapiDecoderH26519fillPredWeightTableEP27_VASliceParameterBufferHEVCPKN10YamiParser4H26511SliceHeaderE
libyami.so.1:_ZN14YamiMediaCodec16VaapiDecoderH26520decodeHevcRecordDataEPhi
libyami.so.1:_ZN14YamiMediaCodec16VaapiDecoderH26525fillReferenceIndexForListEP27_VASliceParameterBufferHEVCRKSt6vectorIPNS_19VaapiDecPictureH265ESaIS5_EEb
libyami.so.1:_ZN14YamiMediaCodec16VaapiDecoderH2653DPB11clearRefSetEv
libyami.so.1:_ZN14YamiMediaCodec16VaapiDecoderH2653DPB12checkDpbSizeEPKN10YamiParser4H2653SPSE
libyami.so.1:_ZN14YamiMediaCodec16VaapiDecoderH2653DPB12checkLatencyEPKN10YamiParser4H2653SPSE
libyami.so.1:_ZN14YamiMediaCodec16VaapiDecoderH2653DPB12removeUnusedEv
libyami.so.1:_ZN14YamiMediaCodec16VaapiDecoderH2653DPB13initReferenceERKSt10shared_ptrINS_19VaapiDecPictureH265EEPKN10YamiParser4H26511SliceHeaderEPKNS8_7NalUnitEb
libyami.so.1:_ZN14YamiMediaCodec16VaapiDecoderH2653DPB15initLongTermRefERKSt10shared_ptrINS_19VaapiDecPictureH265EEPKN10YamiParser4H26511SliceHeaderE
libyami.so.1:_ZN14YamiMediaCodec16VaapiDecoderH2653DPB16checkReorderPicsEPKN10YamiParser4H2653SPSE
libyami.so.1:_ZN14YamiMediaCodec16VaapiDecoderH2653DPB16initShortTermRefERKSt10shared_ptrINS_19VaapiDecPictureH265EEPKN10YamiParser4H26511SliceHeaderE
libyami.so.1:_ZN14YamiMediaCodec16VaapiDecoderH2653DPB16initShortTermRefERSt6vectorIPNS_19VaapiDecPictureH265ESaIS4_EEiPKiPKhh
libyami.so.1:_ZN14YamiMediaCodec16VaapiDecoderH2653DPB3addERKSt10shared_ptrINS_19VaapiDecPictureH265EEPKN10YamiParser4H26511SliceHeaderE
libyami.so.1:_ZN14YamiMediaCodec16VaapiDecoderH2653DPB4bumpEv
libyami.so.1:_ZN14YamiMediaCodec16VaapiDecoderH2653DPB4initERKSt10shared_ptrINS_19VaapiDecPictureH265EEPKN10YamiParser4H26511SliceHeaderEPKNS8_7NalUnitEb
libyami.so.1:_ZN14YamiMediaCodec16VaapiDecoderH2653DPB5flushEv
libyami.so.1:_ZN14YamiMediaCodec16VaapiDecoderH2653DPB6getPicEib
libyami.so.1:_ZN14YamiMediaCodec16VaapiDecoderH2653DPB6outputERKSt10shared_ptrINS_19VaapiDecPictureH265EE
libyami.so.1:_ZN14YamiMediaCodec16VaapiDecoderH2653DPB7bumpAllEv
libyami.so.1:_ZN14YamiMediaCodec16VaapiDecoderH2653DPB7forEachESt8functionIFvRKSt10shared_ptrINS_19VaapiDecPictureH265EEEE
libyami.so.1:_ZN14YamiMediaCodec16VaapiDecoderH2653DPBC1ESt8functionIF10YamiStatusRKSt10shared_ptrINS_19VaapiDecPictureH265EEEE
libyami.so.1:_ZN14YamiMediaCodec16VaapiDecoderH2653DPBC2ESt8functionIF10YamiStatusRKSt10shared_ptrINS_19VaapiDecPictureH265EEEE
libyami.so.1:_ZN14YamiMediaCodec16VaapiDecoderH2655flushEb
libyami.so.1:_ZN14YamiMediaCodec16VaapiDecoderH2655flushEv
libyami.so.1:_ZN14YamiMediaCodec16VaapiDecoderH2655startEP17VideoConfigBuffer
libyami.so.1:_ZN14YamiMediaCodec16VaapiDecoderH2656decodeEP17VideoDecodeBuffer
libyami.so.1:_ZN14YamiMediaCodec16VaapiDecoderH2656getPocERKSt10shared_ptrINS_19VaapiDecPictureH265EEPKN10YamiParser4H26511SliceHeaderEPKNS7_7NalUnitE
libyami.so.1:_ZN14YamiMediaCodec16VaapiDecoderH2658getIndexEi
libyami.so.1:_ZN14YamiMediaCodec16VaapiDecoderH2659fillSliceERKSt10shared_ptrINS_19VaapiDecPictureH265EEPKN10YamiParser4H26511SliceHeaderEPKNS7_7NalUnitE
libyami.so.1:_ZN14YamiMediaCodec16VaapiDecoderH265C1Ev
libyami.so.1:_ZN14YamiMediaCodec16VaapiDecoderH265C2Ev
libyami.so.1:_ZN14YamiMediaCodec16VaapiDecoderH265D0Ev
libyami.so.1:_ZN14YamiMediaCodec16VaapiDecoderH265D1Ev
libyami.so.1:_ZN14YamiMediaCodec16VaapiDecoderH265D2Ev
libyami.so.1:_ZN14YamiMediaCodec16VaapiDecoderJPEG13ensureContextEv
libyami.so.1:_ZN14YamiMediaCodec16VaapiDecoderJPEG14fillSliceParamEv
libyami.so.1:_ZN14YamiMediaCodec16VaapiDecoderJPEG16fillPictureParamEv
libyami.so.1:_ZN14YamiMediaCodec16VaapiDecoderJPEG17loadHuffmanTablesEv
libyami.so.1:_ZN14YamiMediaCodec16VaapiDecoderJPEG22loadQuantizationTablesEv
libyami.so.1:_ZN14YamiMediaCodec16VaapiDecoderJPEG4Impl14onStartOfFrameEv
libyami.so.1:_ZN14YamiMediaCodec16VaapiDecoderJPEG4Impl8onMarkerEv
libyami.so.1:_ZN14YamiMediaCodec16VaapiDecoderJPEG5resetEP17VideoConfigBuffer
libyami.so.1:_ZN14YamiMediaCodec16VaapiDecoderJPEG5startEP17VideoConfigBuffer
libyami.so.1:_ZN14YamiMediaCodec16VaapiDecoderJPEG6decodeEP17VideoDecodeBuffer
libyami.so.1:_ZN14YamiMediaCodec16VaapiDecoderJPEG6finishEv
libyami.so.1:_ZN14YamiMediaCodec16VaapiDecoderJPEGC1Ev
libyami.so.1:_ZN14YamiMediaCodec16VaapiDecoderJPEGC2Ev
libyami.so.1:_ZN14YamiMediaCodec16VaapiEncoderBase10checkEmptyEP20VideoEncOutputBufferPb
libyami.so.1:_ZN14YamiMediaCodec16VaapiEncoderBase10getPictureERSt10shared_ptrINS_15VaapiEncPictureEE
libyami.so.1:_ZN14YamiMediaCodec16VaapiEncoderBase10mapToRangeERjjjjjj
libyami.so.1:_ZN14YamiMediaCodec16VaapiEncoderBase13createSurfaceEP17VideoFrameRawData
libyami.so.1:_ZN14YamiMediaCodec16VaapiEncoderBase13createSurfaceERKSt10shared_ptrI10VideoFrameE
libyami.so.1:_ZN14YamiMediaCodec16VaapiEncoderBase13createSurfaceEv
libyami.so.1:_ZN14YamiMediaCodec16VaapiEncoderBase13getMaxOutSizeEPj
libyami.so.1:_ZN14YamiMediaCodec16VaapiEncoderBase13getParametersE20VideoParamConfigTypePv
libyami.so.1:_ZN14YamiMediaCodec16VaapiEncoderBase13setParametersE20VideoParamConfigTypePv
libyami.so.1:_ZN14YamiMediaCodec16VaapiEncoderBase14checkCodecDataEP20VideoEncOutputBuffer
libyami.so.1:_ZN14YamiMediaCodec16VaapiEncoderBase14getCodecConfigEP20VideoEncOutputBuffer
libyami.so.1:_ZN14YamiMediaCodec16VaapiEncoderBase15ensureFrameRateEPNS_15VaapiEncPictureEj
libyami.so.1:_ZN14YamiMediaCodec16VaapiEncoderBase15mapQualityLevelEv
libyami.so.1:_ZN14YamiMediaCodec16VaapiEncoderBase16createNewSurfaceEj
libyami.so.1:_ZN14YamiMediaCodec16VaapiEncoderBase16ensureMiscParamsEPNS_15VaapiEncPictureE
libyami.so.1:_ZN14YamiMediaCodec16VaapiEncoderBase16fillQualityLevelEPNS_15VaapiEncPictureE
libyami.so.1:_ZN14YamiMediaCodec16VaapiEncoderBase16setNativeDisplayEP13NativeDisplay
libyami.so.1:_ZN14YamiMediaCodec16VaapiEncoderBase17ensureRateControlEPNS_15VaapiEncPictureEj
libyami.so.1:_ZN14YamiMediaCodec16VaapiEncoderBase4stopEv
libyami.so.1:_ZN14YamiMediaCodec16VaapiEncoderBase5flushEv
libyami.so.1:_ZN14YamiMediaCodec16VaapiEncoderBase5startEv
libyami.so.1:_ZN14YamiMediaCodec16VaapiEncoderBase6encodeEP17VideoEncRawBuffer
libyami.so.1:_ZN14YamiMediaCodec16VaapiEncoderBase6encodeEP17VideoFrameRawData
libyami.so.1:_ZN14YamiMediaCodec16VaapiEncoderBase6encodeERKSt10shared_ptrI10VideoFrameE
libyami.so.1:_ZN14YamiMediaCodec16VaapiEncoderBase6initVAEv
libyami.so.1:_ZN14YamiMediaCodec16VaapiEncoderBase6isBusyEv
libyami.so.1:_ZN14YamiMediaCodec16VaapiEncoderBase9cleanupVAEv
libyami.so.1:_ZN14YamiMediaCodec16VaapiEncoderBase9getConfigE20VideoParamConfigTypePv
libyami.so.1:_ZN14YamiMediaCodec16VaapiEncoderBase9getOutputEP20VideoEncOutputBufferb
libyami.so.1:_ZN14YamiMediaCodec16VaapiEncoderBase9setConfigE20VideoParamConfigTypePv
libyami.so.1:_ZN14YamiMediaCodec16VaapiEncoderBaseC1Ev
libyami.so.1:_ZN14YamiMediaCodec16VaapiEncoderBaseC2Ev
libyami.so.1:_ZN14YamiMediaCodec16VaapiEncoderBaseD0Ev
libyami.so.1:_ZN14YamiMediaCodec16VaapiEncoderBaseD1Ev
libyami.so.1:_ZN14YamiMediaCodec16VaapiEncoderBaseD2Ev
libyami.so.1:_ZN14YamiMediaCodec16VaapiEncoderH26411resetParamsEv
libyami.so.1:_ZN14YamiMediaCodec16VaapiEncoderH26411setIdrFrameERKSt10shared_ptrINS_19VaapiEncPictureH264EE
libyami.so.1:_ZN14YamiMediaCodec16VaapiEncoderH26412ensureSlicesERKSt10shared_ptrINS_19VaapiEncPictureH264EE
libyami.so.1:_ZN14YamiMediaCodec16VaapiEncoderH26413encodePictureERKSt10shared_ptrINS_19VaapiEncPictureH264EE
libyami.so.1:_ZN14YamiMediaCodec16VaapiEncoderH26413ensurePictureERKSt10shared_ptrINS_19VaapiEncPictureH264EERKS1_INS_12VaapiSurfaceEE
libyami.so.1:_ZN14YamiMediaCodec16VaapiEncoderH26413getMaxOutSizeEPj
libyami.so.1:_ZN14YamiMediaCodec16VaapiEncoderH26413getParametersE20VideoParamConfigTypePv
libyami.so.1:_ZN14YamiMediaCodec16VaapiEncoderH26413resetGopStartEv
libyami.so.1:_ZN14YamiMediaCodec16VaapiEncoderH26413setParametersE20VideoParamConfigTypePv
libyami.so.1:_ZN14YamiMediaCodec16VaapiEncoderH26414ensureSequenceERKSt10shared_ptrINS_19VaapiEncPictureH264EE
libyami.so.1:_ZN14YamiMediaCodec16VaapiEncoderH26414getCodecConfigEP20VideoEncOutputBuffer
libyami.so.1:_ZN14YamiMediaCodec16VaapiEncoderH26415encodeAllFramesEv
libyami.so.1:_ZN14YamiMediaCodec16VaapiEncoderH26416ensureMiscParamsEPNS_15VaapiEncPictureE
libyami.so.1:_ZN14YamiMediaCodec16VaapiEncoderH26417referenceListFreeEv
libyami.so.1:_ZN14YamiMediaCodec16VaapiEncoderH26419ensurePictureHeaderERKSt10shared_ptrINS_19VaapiEncPictureH264EEPK32_VAEncPictureParameterBufferH264
libyami.so.1:_ZN14YamiMediaCodec16VaapiEncoderH26419referenceListUpdateERKSt10shared_ptrINS_19VaapiEncPictureH264EERKS1_INS_12VaapiSurfaceEE
libyami.so.1:_ZN14YamiMediaCodec16VaapiEncoderH26420ensureSequenceHeaderERKSt10shared_ptrINS_19VaapiEncPictureH264EEPK33_VAEncSequenceParameterBufferH264
libyami.so.1:_ZN14YamiMediaCodec16VaapiEncoderH26421checkSvcTempLimitaionEv
libyami.so.1:_ZN14YamiMediaCodec16VaapiEncoderH26421ensureCodedBufferSizeEv
libyami.so.1:_ZN14YamiMediaCodec16VaapiEncoderH26422checkProfileLimitationEv
libyami.so.1:_ZN14YamiMediaCodec16VaapiEncoderH26423pictureReferenceListSetERKSt10shared_ptrINS_19VaapiEncPictureH264EE
libyami.so.1:_ZN14YamiMediaCodec16VaapiEncoderH26424changeLastBFrameToPFrameEv
libyami.so.1:_ZN14YamiMediaCodec16VaapiEncoderH2644stopEv
libyami.so.1:_ZN14YamiMediaCodec16VaapiEncoderH2645flushEv
libyami.so.1:_ZN14YamiMediaCodec16VaapiEncoderH2645startEv
libyami.so.1:_ZN14YamiMediaCodec16VaapiEncoderH2647reorderERKSt10shared_ptrINS_12VaapiSurfaceEEmb
libyami.so.1:_ZN14YamiMediaCodec16VaapiEncoderH2648doEncodeERKSt10shared_ptrINS_12VaapiSurfaceEEmb
libyami.so.1:_ZN14YamiMediaCodec16VaapiEncoderH2649setBFrameERKSt10shared_ptrINS_19VaapiEncPictureH264EE
libyami.so.1:_ZN14YamiMediaCodec16VaapiEncoderH2649setIFrameERKSt10shared_ptrINS_19VaapiEncPictureH264EE
libyami.so.1:_ZN14YamiMediaCodec16VaapiEncoderH2649setPFrameERKSt10shared_ptrINS_19VaapiEncPictureH264EE
libyami.so.1:_ZN14YamiMediaCodec16VaapiEncoderH264C1Ev
libyami.so.1:_ZN14YamiMediaCodec16VaapiEncoderH264C2Ev
libyami.so.1:_ZN14YamiMediaCodec16VaapiEncoderH264D0Ev
libyami.so.1:_ZN14YamiMediaCodec16VaapiEncoderH264D1Ev
libyami.so.1:_ZN14YamiMediaCodec16VaapiEncoderH264D2Ev
libyami.so.1:_ZN14YamiMediaCodec16VaapiEncoderHEVC11resetParamsEv
libyami.so.1:_ZN14YamiMediaCodec16VaapiEncoderHEVC11setIdrFrameERKSt10shared_ptrINS_19VaapiEncPictureHEVCEE
libyami.so.1:_ZN14YamiMediaCodec16VaapiEncoderHEVC11setShortRfsEv
libyami.so.1:_ZN14YamiMediaCodec16VaapiEncoderHEVC12ensureSlicesERKSt10shared_ptrINS_19VaapiEncPictureHEVCEE
libyami.so.1:_ZN14YamiMediaCodec16VaapiEncoderHEVC13encodePictureERKSt10shared_ptrINS_19VaapiEncPictureHEVCEE
libyami.so.1:_ZN14YamiMediaCodec16VaapiEncoderHEVC13ensurePictureERKSt10shared_ptrINS_19VaapiEncPictureHEVCEERKS1_INS_12VaapiSurfaceEE
libyami.so.1:_ZN14YamiMediaCodec16VaapiEncoderHEVC13getMaxOutSizeEPj
libyami.so.1:_ZN14YamiMediaCodec16VaapiEncoderHEVC13getParametersE20VideoParamConfigTypePv
libyami.so.1:_ZN14YamiMediaCodec16VaapiEncoderHEVC13resetGopStartEv
libyami.so.1:_ZN14YamiMediaCodec16VaapiEncoderHEVC13setIntraFrameERKSt10shared_ptrINS_19VaapiEncPictureHEVCEEb
libyami.so.1:_ZN14YamiMediaCodec16VaapiEncoderHEVC13setParametersE20VideoParamConfigTypePv
libyami.so.1:_ZN14YamiMediaCodec16VaapiEncoderHEVC14ensureSequenceERKSt10shared_ptrINS_19VaapiEncPictureHEVCEE
libyami.so.1:_ZN14YamiMediaCodec16VaapiEncoderHEVC14getCodecConfigEP20VideoEncOutputBuffer
libyami.so.1:_ZN14YamiMediaCodec16VaapiEncoderHEVC14shortRfsUpdateERKSt10shared_ptrINS_19VaapiEncPictureHEVCEE
libyami.so.1:_ZN14YamiMediaCodec16VaapiEncoderHEVC15encodeAllFramesEv
libyami.so.1:_ZN14YamiMediaCodec16VaapiEncoderHEVC17referenceListFreeEv
libyami.so.1:_ZN14YamiMediaCodec16VaapiEncoderHEVC19ensurePictureHeaderERKSt10shared_ptrINS_19VaapiEncPictureHEVCEEPK32_VAEncPictureParameterBufferHEVC
libyami.so.1:_ZN14YamiMediaCodec16VaapiEncoderHEVC19referenceListUpdateERKSt10shared_ptrINS_19VaapiEncPictureHEVCEERKS1_INS_12VaapiSurfaceEE
libyami.so.1:_ZN14YamiMediaCodec16VaapiEncoderHEVC20ensureSequenceHeaderERKSt10shared_ptrINS_19VaapiEncPictureHEVCEEPK33_VAEncSequenceParameterBufferHEVC
libyami.so.1:_ZN14YamiMediaCodec16VaapiEncoderHEVC21ensureCodedBufferSizeEv
libyami.so.1:_ZN14YamiMediaCodec16VaapiEncoderHEVC23pictureReferenceListSetERKSt10shared_ptrINS_19VaapiEncPictureHEVCEE
libyami.so.1:_ZN14YamiMediaCodec16VaapiEncoderHEVC24changeLastBFrameToPFrameEv
libyami.so.1:_ZN14YamiMediaCodec16VaapiEncoderHEVC4stopEv
libyami.so.1:_ZN14YamiMediaCodec16VaapiEncoderHEVC5flushEv
libyami.so.1:_ZN14YamiMediaCodec16VaapiEncoderHEVC5startEv
libyami.so.1:_ZN14YamiMediaCodec16VaapiEncoderHEVC7reorderERKSt10shared_ptrINS_12VaapiSurfaceEEmb
libyami.so.1:_ZN14YamiMediaCodec16VaapiEncoderHEVC8doEncodeERKSt10shared_ptrINS_12VaapiSurfaceEEmb
libyami.so.1:_ZN14YamiMediaCodec16VaapiEncoderHEVC9setBFrameERKSt10shared_ptrINS_19VaapiEncPictureHEVCEE
libyami.so.1:_ZN14YamiMediaCodec16VaapiEncoderHEVC9setIFrameERKSt10shared_ptrINS_19VaapiEncPictureHEVCEE
libyami.so.1:_ZN14YamiMediaCodec16VaapiEncoderHEVC9setPFrameERKSt10shared_ptrINS_19VaapiEncPictureHEVCEE
libyami.so.1:_ZN14YamiMediaCodec16VaapiEncoderHEVCC1Ev
libyami.so.1:_ZN14YamiMediaCodec16VaapiEncoderHEVCC2Ev
libyami.so.1:_ZN14YamiMediaCodec16VaapiEncoderHEVCD0Ev
libyami.so.1:_ZN14YamiMediaCodec16VaapiEncoderHEVCD1Ev
libyami.so.1:_ZN14YamiMediaCodec16VaapiEncoderHEVCD2Ev
libyami.so.1:_ZN14YamiMediaCodec16VaapiEncoderJpeg11ensureSliceERKSt10shared_ptrINS_19VaapiEncPictureJPEGEE
libyami.so.1:_ZN14YamiMediaCodec16VaapiEncoderJpeg11resetParamsEv
libyami.so.1:_ZN14YamiMediaCodec16VaapiEncoderJpeg13encodePictureERKSt10shared_ptrINS_19VaapiEncPictureJPEGEE
libyami.so.1:_ZN14YamiMediaCodec16VaapiEncoderJpeg13ensurePictureERKSt10shared_ptrINS_19VaapiEncPictureJPEGEERKS1_INS_12VaapiSurfaceEE
libyami.so.1:_ZN14YamiMediaCodec16VaapiEncoderJpeg13ensureQMatrixERKSt10shared_ptrINS_19VaapiEncPictureJPEGEE
libyami.so.1:_ZN14YamiMediaCodec16VaapiEncoderJpeg13getMaxOutSizeEPj
libyami.so.1:_ZN14YamiMediaCodec16VaapiEncoderJpeg13getParametersE20VideoParamConfigTypePv
libyami.so.1:_ZN14YamiMediaCodec16VaapiEncoderJpeg13setParametersE20VideoParamConfigTypePv
libyami.so.1:_ZN14YamiMediaCodec16VaapiEncoderJpeg15ensureHuffTableERKSt10shared_ptrINS_19VaapiEncPictureJPEGEE
libyami.so.1:_ZN14YamiMediaCodec16VaapiEncoderJpeg4stopEv
libyami.so.1:_ZN14YamiMediaCodec16VaapiEncoderJpeg5flushEv
libyami.so.1:_ZN14YamiMediaCodec16VaapiEncoderJpeg5startEv
libyami.so.1:_ZN14YamiMediaCodec16VaapiEncoderJpeg8doEncodeERKSt10shared_ptrINS_12VaapiSurfaceEEmb
libyami.so.1:_ZN14YamiMediaCodec16VaapiEncoderJpegC1Ev
libyami.so.1:_ZN14YamiMediaCodec16VaapiEncoderJpegC2Ev
libyami.so.1:_ZN14YamiMediaCodec16Vp8EncoderNormal11getRefFlagsERNS_8RefFlagsEh
libyami.so.1:_ZN14YamiMediaCodec16fillFrameRawDataEP17VideoFrameRawDatajjjPh
libyami.so.1:_ZN14YamiMediaCodec17bit_writer_put_seEPN10YamiParser9BitWriterEi
libyami.so.1:_ZN14YamiMediaCodec17bit_writer_put_ueEPN10YamiParser9BitWriterEj
libyami.so.1:_ZN14YamiMediaCodec17fillVAPictureH264EP14_VAPictureH264RKSt10shared_ptrINS_19VaapiDecPictureH264EE
libyami.so.1:_ZN14YamiMediaCodec17mapSurfaceToImageEPvlR8_VAImage
libyami.so.1:_ZN14YamiMediaCodec17matchPicStructureERKSt10shared_ptrINS_19VaapiDecPictureH264EES4_
libyami.so.1:_ZN14YamiMediaCodec18ascCompareLtPicNumERKSt10shared_ptrINS_19VaapiDecPictureH264EES4_
libyami.so.1:_ZN14YamiMediaCodec18decCompareStPicNumERKSt10shared_ptrINS_19VaapiDecPictureH264EES4_
libyami.so.1:_ZN14YamiMediaCodec18fillScalingList4x4EP21_VAIQMatrixBufferH264St10shared_ptrIN10YamiParser4H2643PPSEE
libyami.so.1:_ZN14YamiMediaCodec18fillScalingList4x4EP21_VAIQMatrixBufferHEVCPKN10YamiParser4H26511ScalingListE
libyami.so.1:_ZN14YamiMediaCodec18fillScalingList8x8EP21_VAIQMatrixBufferH264St10shared_ptrIN10YamiParser4H2643PPSEE
libyami.so.1:_ZN14YamiMediaCodec18fillScalingList8x8EP21_VAIQMatrixBufferHEVCPKN10YamiParser4H26511ScalingListE
libyami.so.1:_ZN14YamiMediaCodec18getPlaneResolutionEjjjPjS0_Rj
libyami.so.1:_ZN14YamiMediaCodec18isInvalidDrmHandleEi
libyami.so.1:_ZN14YamiMediaCodec19VaapiDecSurfacePool10getSurfaceEP19_SurfaceAllocParamsPl
libyami.so.1:_ZN14YamiMediaCodec19VaapiDecSurfacePool10getSurfaceEPl
libyami.so.1:_ZN14YamiMediaCodec19VaapiDecSurfacePool10putSurfaceEP19_SurfaceAllocParamsl
libyami.so.1:_ZN14YamiMediaCodec19VaapiDecSurfacePool10putSurfaceEl
libyami.so.1:_ZN14YamiMediaCodec19VaapiDecSurfacePool13getSurfaceIDsERSt6vectorIjSaIjEE
libyami.so.1:_ZN14YamiMediaCodec19VaapiDecSurfacePool4initEPNS_18VideoDecoderConfigERKSt10shared_ptrI17_SurfaceAllocatorE
libyami.so.1:_ZN14YamiMediaCodec19VaapiDecSurfacePool6createEP17VideoConfigBufferRKSt10shared_ptrI17_SurfaceAllocatorE
libyami.so.1:_ZN14YamiMediaCodec19VaapiDecSurfacePool6createEPNS_18VideoDecoderConfigERKSt10shared_ptrI17_SurfaceAllocatorE
libyami.so.1:_ZN14YamiMediaCodec19VaapiDecSurfacePool7acquireEv
libyami.so.1:_ZN14YamiMediaCodec19VaapiDecSurfacePoolC1Ev
libyami.so.1:_ZN14YamiMediaCodec19VaapiDecSurfacePoolC2Ev
libyami.so.1:_ZN14YamiMediaCodec19VaapiDecSurfacePoolD1Ev
libyami.so.1:_ZN14YamiMediaCodec19VaapiDecSurfacePoolD2Ev
libyami.so.1:_ZN14YamiMediaCodec19VaapiEncPictureH26415getOutputHelperEPS0_P20VideoEncOutputBuffer
libyami.so.1:_ZN14YamiMediaCodec19VaapiEncPictureHEVC15getOutputHelperEPS0_P20VideoEncOutputBuffer
libyami.so.1:_ZN14YamiMediaCodec19markUnusedReferenceERKSt10shared_ptrINS_19VaapiDecPictureH264EE
libyami.so.1:_ZN14YamiMediaCodec19markUnusedReferenceERKSt10shared_ptrINS_19VaapiDecPictureH265EE
libyami.so.1:_ZN14YamiMediaCodec19matchLongTermPicNumERKSt10shared_ptrINS_19VaapiDecPictureH264EEi
libyami.so.1:_ZN14YamiMediaCodec20PooledFrameAllocator5allocEv
libyami.so.1:_ZN14YamiMediaCodec20PooledFrameAllocator9setFormatEjii
libyami.so.1:_ZN14YamiMediaCodec20PooledFrameAllocatorC1ERKSt10shared_ptrIPvEi
libyami.so.1:_ZN14YamiMediaCodec20PooledFrameAllocatorC2ERKSt10shared_ptrIPvEi
libyami.so.1:_ZN14YamiMediaCodec20VaapiPostProcessBase16setNativeDisplayERK13NativeDisplay
libyami.so.1:_ZN14YamiMediaCodec20VaapiPostProcessBase24queryVideoProcFilterCapsE17_VAProcFilterTypePvPj
libyami.so.1:_ZN14YamiMediaCodec20VaapiPostProcessBase6initVAERK13NativeDisplay
libyami.so.1:_ZN14YamiMediaCodec20VaapiPostProcessBase9cleanupVAEv
libyami.so.1:_ZN14YamiMediaCodec20VaapiPostProcessBaseD0Ev
libyami.so.1:_ZN14YamiMediaCodec20VaapiPostProcessBaseD1Ev
libyami.so.1:_ZN14YamiMediaCodec20VaapiPostProcessBaseD2Ev
libyami.so.1:_ZN14YamiMediaCodec20checkPicLatencyCountERKSt10shared_ptrINS_19VaapiDecPictureH265EEj
libyami.so.1:_ZN14YamiMediaCodec20fillScalingList16x16EP21_VAIQMatrixBufferHEVCPKN10YamiParser4H26511ScalingListE
libyami.so.1:_ZN14YamiMediaCodec20fillScalingList32x32EP21_VAIQMatrixBufferHEVCPKN10YamiParser4H26511ScalingListE
libyami.so.1:_ZN14YamiMediaCodec20matchShortTermPicNumERKSt10shared_ptrINS_19VaapiDecPictureH264EEi
libyami.so.1:_ZN14YamiMediaCodec20resetPictureHasMmco5ERKSt10shared_ptrINS_19VaapiDecPictureH264EE
libyami.so.1:_ZN14YamiMediaCodec21VaapiSurfaceAllocator6doFreeEP19_SurfaceAllocParams
libyami.so.1:_ZN14YamiMediaCodec21VaapiSurfaceAllocator7doAllocEP19_SurfaceAllocParams
libyami.so.1:_ZN14YamiMediaCodec21VaapiSurfaceAllocator7doUnrefEv
libyami.so.1:_ZN14YamiMediaCodec21VaapiSurfaceAllocatorC1EPvj
libyami.so.1:_ZN14YamiMediaCodec21VaapiSurfaceAllocatorC2EPvj
libyami.so.1:_ZN14YamiMediaCodec21fourccToColorStandardEj
libyami.so.1:_ZN14YamiMediaCodec21markLongTermReferenceERKSt10shared_ptrINS_19VaapiDecPictureH264EE
libyami.so.1:_ZN14YamiMediaCodec22VaapiPostProcessScaler10getFiltersERSt6vectorIjSaIjEE
libyami.so.1:_ZN14YamiMediaCodec22VaapiPostProcessScaler10mapToRangeERfffiii
libyami.so.1:_ZN14YamiMediaCodec22VaapiPostProcessScaler10mapToRangeERfiii17_VAProcFilterTypeRSt10shared_ptrI16_VAProcFilterCapE
libyami.so.1:_ZN14YamiMediaCodec22VaapiPostProcessScaler12createFilterERSt10shared_ptrINS_11VaapiBufferEE17_VAProcFilterTypef
libyami.so.1:_ZN14YamiMediaCodec22VaapiPostProcessScaler13setParametersE12VppParamTypePv
libyami.so.1:_ZN14YamiMediaCodec22VaapiPostProcessScaler13setProcParamsERNS0_10ProcParamsEiiii17_VAProcFilterType
libyami.so.1:_ZN14YamiMediaCodec22VaapiPostProcessScaler14setParamToNoneERNS0_10ProcParamsEi
libyami.so.1:_ZN14YamiMediaCodec22VaapiPostProcessScaler19setDeinterlaceParamERK24VPPDeinterlaceParameters
libyami.so.1:_ZN14YamiMediaCodec22VaapiPostProcessScaler20mapToVARotationStateE12VppTransform
libyami.so.1:_ZN14YamiMediaCodec22VaapiPostProcessScaler20setColorBalanceParamERK24VPPColorBalanceParameter
libyami.so.1:_ZN14YamiMediaCodec22VaapiPostProcessScaler23createDeinterlaceFilterERK24VPPDeinterlaceParameters
libyami.so.1:_ZN14YamiMediaCodec22VaapiPostProcessScaler25createColorBalanceFiltersERNS0_17ColorBalanceParamERK24VPPColorBalanceParameter
libyami.so.1:_ZN14YamiMediaCodec22VaapiPostProcessScaler7processERKSt10shared_ptrI10VideoFrameES5_
libyami.so.1:_ZN14YamiMediaCodec22VaapiPostProcessScalerC1Ev
libyami.so.1:_ZN14YamiMediaCodec22VaapiPostProcessScalerC2Ev
libyami.so.1:_ZN14YamiMediaCodec22ascCompareLtFrameIndexERKSt10shared_ptrINS_19VaapiDecPictureH264EES4_
libyami.so.1:_ZN14YamiMediaCodec22decCompareFrameNumWrapERKSt10shared_ptrINS_19VaapiDecPictureH264EES4_
libyami.so.1:_ZN14YamiMediaCodec22fillPredWedightTableL0EP27_VASliceParameterBufferH264PKN10YamiParser4H26411SliceHeaderEh
libyami.so.1:_ZN14YamiMediaCodec22fillPredWedightTableL0EP27_VASliceParameterBufferHEVCPKN10YamiParser4H26511SliceHeaderEh
libyami.so.1:_ZN14YamiMediaCodec22fillPredWedightTableL1EP27_VASliceParameterBufferH264PKN10YamiParser4H26411SliceHeaderEh
libyami.so.1:_ZN14YamiMediaCodec22fillPredWedightTableL1EP27_VASliceParameterBufferHEVCPKN10YamiParser4H26511SliceHeaderEh
libyami.so.1:_ZN14YamiMediaCodec22fillScalingListDc16x16EP21_VAIQMatrixBufferHEVCPKN10YamiParser4H26511ScalingListE
libyami.so.1:_ZN14YamiMediaCodec22fillScalingListDc32x32EP21_VAIQMatrixBufferHEVCPKN10YamiParser4H26511ScalingListE
libyami.so.1:_ZN14YamiMediaCodec22findComplementaryFieldERKSt10shared_ptrINS_19VaapiDecPictureH264EEiNS_16VaapiPictureTypeE
libyami.so.1:_ZN14YamiMediaCodec22partitionAndInterleaveERKSt10shared_ptrINS_19VaapiDecPictureH264EERSt6vectorIS2_SaIS2_EE
libyami.so.1:_ZN14YamiMediaCodec24VaapiEncStreamHeaderH26414getCodecConfigEP20VideoEncOutputBuffer
libyami.so.1:_ZN14YamiMediaCodec24VaapiEncStreamHeaderHEVC14getCodecConfigEP20VideoEncOutputBuffer
libyami.so.1:_ZN14YamiMediaCodec26matchShortTermFrameNumWrapERKSt10shared_ptrINS_19VaapiDecPictureH264EEi
libyami.so.1:_ZN14YamiMediaCodec27calcMaxDecFrameBufferingNumERKSt10shared_ptrIN10YamiParser4H2643SPSEE
libyami.so.1:_ZN14YamiMediaCodec28matchFrameNumInShortTermListERKSt10shared_ptrINS_19VaapiDecPictureH264EEi
libyami.so.1:_ZN14YamiMediaCodec33markUnusedLongTermRefWithMaxIndexERKSt10shared_ptrINS_19VaapiDecPictureH264EEi
libyami.so.1:_ZN14YamiMediaCodec5isBlaEPKN10YamiParser4H2657NalUnitE
libyami.so.1:_ZN14YamiMediaCodec5isCraEPKN10YamiParser4H2657NalUnitE
libyami.so.1:_ZN14YamiMediaCodec5isIdrEPKN10YamiParser4H2657NalUnitE
libyami.so.1:_ZN14YamiMediaCodec6Thread4initEPv
libyami.so.1:_ZN14YamiMediaCodec6Thread4loopEv
libyami.so.1:_ZN14YamiMediaCodec6Thread4postERKSt8functionIFvvEE
libyami.so.1:_ZN14YamiMediaCodec6Thread4sendERKSt8functionIFvvEE
libyami.so.1:_ZN14YamiMediaCodec6Thread4stopEv
libyami.so.1:_ZN14YamiMediaCodec6Thread5startEv
libyami.so.1:_ZN14YamiMediaCodec6Thread7enqueueERKSt8functionIFvvEE
libyami.so.1:_ZN14YamiMediaCodec6Thread7sendJobERKSt8functionIFvvEERb
libyami.so.1:_ZN14YamiMediaCodec6Thread9isCurrentEv
libyami.so.1:_ZN14YamiMediaCodec6ThreadC1EPKc
libyami.so.1:_ZN14YamiMediaCodec6ThreadC2EPKc
libyami.so.1:_ZN14YamiMediaCodec6ThreadD1Ev
libyami.so.1:_ZN14YamiMediaCodec6ThreadD2Ev
libyami.so.1:_ZN14YamiMediaCodec6getFpsEmmi
libyami.so.1:_ZN14YamiMediaCodec6isIrapEPKN10YamiParser4H2657NalUnitE
libyami.so.1:_ZN14YamiMediaCodec6isRadlEPKN10YamiParser4H2657NalUnitE
libyami.so.1:_ZN14YamiMediaCodec6isRaslEPKN10YamiParser4H2657NalUnitE
libyami.so.1:_ZN14YamiMediaCodec7CalcFps3fpsEj
libyami.so.1:_ZN14YamiMediaCodec7CalcFps9setAnchorEv
libyami.so.1:_ZN14YamiMediaCodec7FpsCalc3logEv
libyami.so.1:_ZN14YamiMediaCodec7FpsCalc8addFrameEv
libyami.so.1:_ZN14YamiMediaCodec7FpsCalcC1Ev
libyami.so.1:_ZN14YamiMediaCodec7FpsCalcC2Ev
libyami.so.1:_ZN14YamiMediaCodec7details12freeSurfacesEP17_SurfaceAllocatorP19_SurfaceAllocParams
libyami.so.1:_ZN14YamiMediaCodec7details14unrefAllocatorEP17_SurfaceAllocator
libyami.so.1:_ZN14YamiMediaCodec7details15allocatSurfacesEP17_SurfaceAllocatorP19_SurfaceAllocParams
libyami.so.1:_ZN14YamiMediaCodec7expiredERKSt8weak_ptrINS_12VaapiDisplayEE
libyami.so.1:_ZN14YamiMediaCodec9NalReader14searchNalStartEv
libyami.so.1:_ZN14YamiMediaCodec9NalReader15searchStartCodeEv
libyami.so.1:_ZN14YamiMediaCodec9NalReader4readERPKhRi
libyami.so.1:_ZN14YamiMediaCodec9NalReaderC1EPKhijb
libyami.so.1:_ZN14YamiMediaCodec9NalReaderC2EPKhijb
libyami.so.1:_ZN7FactoryIN14YamiMediaCodec13IVideoDecoderEE6createINS0_15VaapiDecoderVP8EEEPS1_v
libyami.so.1:_ZN7FactoryIN14YamiMediaCodec13IVideoDecoderEE6createINS0_15VaapiDecoderVP9EEEPS1_v
libyami.so.1:_ZN7FactoryIN14YamiMediaCodec13IVideoDecoderEE6createINS0_16VaapiDecoderH264EEEPS1_v
libyami.so.1:_ZN7FactoryIN14YamiMediaCodec13IVideoDecoderEE6createINS0_16VaapiDecoderH265EEEPS1_v
libyami.so.1:_ZN7FactoryIN14YamiMediaCodec13IVideoDecoderEE6createINS0_16VaapiDecoderJPEGEEEPS1_v
libyami.so.1:_ZN7FactoryIN14YamiMediaCodec13IVideoEncoderEE6createINS0_15VaapiEncoderVP8EEEPS1_v
libyami.so.1:_ZN7FactoryIN14YamiMediaCodec13IVideoEncoderEE6createINS0_15VaapiEncoderVP9EEEPS1_v
libyami.so.1:_ZN7FactoryIN14YamiMediaCodec13IVideoEncoderEE6createINS0_16VaapiEncoderH264EEEPS1_v
libyami.so.1:_ZN7FactoryIN14YamiMediaCodec13IVideoEncoderEE6createINS0_16VaapiEncoderHEVCEEEPS1_v
libyami.so.1:_ZN7FactoryIN14YamiMediaCodec13IVideoEncoderEE6createINS0_16VaapiEncoderJpegEEEPS1_v
libyami.so.1:_ZN7FactoryIN14YamiMediaCodec17IVideoPostProcessEE6createINS0_22VaapiPostProcessScalerEEEPS1_v
libyami.so.1:_ZNK10YamiParser4H26511SliceHeader22getSliceDataByteOffsetEv
libyami.so.1:_ZNK10YamiParser4H26511SliceHeader8isBSliceEv
libyami.so.1:_ZNK10YamiParser4H26511SliceHeader8isISliceEv
libyami.so.1:_ZNK10YamiParser4H26511SliceHeader8isPSliceEv
libyami.so.1:_ZNK10YamiParser4H2656Parser6getPpsEh
libyami.so.1:_ZNK10YamiParser4H2656Parser6getSpsEh
libyami.so.1:_ZNK10YamiParser4H2656Parser6getVpsEh
libyami.so.1:_ZNK10YamiParser4JPEG6Parser15notifyCallbacksEv
libyami.so.1:_ZNK10YamiParser9BitReader4peekEj
libyami.so.1:_ZNK10YamiParser9NalReader12moreRbspDataEv
libyami.so.1:_ZNK14YamiMediaCodec14Vp8EncoderSvct11getLayerIdsERSt6vectorIhSaIhEE
libyami.so.1:_ZNK14YamiMediaCodec14Vp8EncoderSvct16getTemporalLayerEj
libyami.so.1:_ZNK14YamiMediaCodec15TemporalLayerID11getLayerIdsERSt6vectorIhSaIhEE
libyami.so.1:_ZNK14YamiMediaCodec15TemporalLayerID13checkLayerIDsEh
libyami.so.1:_ZNK14YamiMediaCodec15TemporalLayerID16getTemporalLayerEj
libyami.so.1:_ZNK14YamiMediaCodec15TemporalLayerID18getLayerFrameRatesERSt6vectorI14VideoFrameRateSaIS2_EE
libyami.so.1:_ZNK14YamiMediaCodec15TemporalLayerID18getMiniRefFrameNumEv
libyami.so.1:_ZNK14YamiMediaCodec15VaapiEncoderVP815referenceUpdateERKSt10shared_ptrINS_12VaapiSurfaceEES5_S5_bj
libyami.so.1:_ZNK14YamiMediaCodec15VaapiEncoderVP84fillEP19_VAQMatrixBufferVP8
libyami.so.1:_ZNK14YamiMediaCodec15VaapiEncoderVP84fillEP31_VAEncPictureParameterBufferVP8RKNS_8RefFlagsE
libyami.so.1:_ZNK14YamiMediaCodec15VaapiEncoderVP84fillEP31_VAEncPictureParameterBufferVP8RKSt10shared_ptrINS_18VaapiEncPictureVP8EERKS3_INS_12VaapiSurfaceEERNS_8RefFlagsE
libyami.so.1:_ZNK14YamiMediaCodec15VaapiEncoderVP84fillEP32_VAEncSequenceParameterBufferVP8
libyami.so.1:_ZNK14YamiMediaCodec15VaapiEncoderVP94fillEP32_VAEncSequenceParameterBufferVP9
libyami.so.1:_ZNK14YamiMediaCodec15VaapiEncoderVP94fillEP41_VAEncMiscParameterTypeVP9PerSegmantParam
libyami.so.1:_ZNK14YamiMediaCodec16VaapiDecoderBase24isSurfaceGeometryChangedEv
libyami.so.1:_ZNK14YamiMediaCodec16VaapiEncoderBase4fillEP22_VAEncMiscParameterHRD
libyami.so.1:_ZNK14YamiMediaCodec16VaapiEncoderBase4fillEP28_VAEncMiscParameterFrameRatej
libyami.so.1:_ZNK14YamiMediaCodec16VaapiEncoderBase4fillEP30_VAEncMiscParameterRateControlj
libyami.so.1:_ZNK14YamiMediaCodec16VaapiEncoderBase7profileEv
libyami.so.1:_ZNK14YamiMediaCodec16VaapiEncoderH26415addSliceHeadersERKSt10shared_ptrINS_19VaapiEncPictureH264EE
libyami.so.1:_ZNK14YamiMediaCodec16VaapiEncoderH26417fillReferenceListEP30_VAEncSliceParameterBufferH264
libyami.so.1:_ZNK14YamiMediaCodec16VaapiEncoderH26420addPackedSliceHeaderERKSt10shared_ptrINS_19VaapiEncPictureH264EEPK30_VAEncSliceParameterBufferH264
libyami.so.1:_ZNK14YamiMediaCodec16VaapiEncoderH26422addPackedPrefixNalUnitERKSt10shared_ptrINS_19VaapiEncPictureH264EE
libyami.so.1:_ZNK14YamiMediaCodec16VaapiEncoderH2644fillEP32_VAEncPictureParameterBufferH264RKSt10shared_ptrINS_19VaapiEncPictureH264EERKS3_INS_12VaapiSurfaceEE
libyami.so.1:_ZNK14YamiMediaCodec16VaapiEncoderH2644fillEP33_VAEncSequenceParameterBufferH264
libyami.so.1:_ZNK14YamiMediaCodec16VaapiEncoderH2644fillEP41_VAEncMiscParameterTemporalLayerStructure
libyami.so.1:_ZNK14YamiMediaCodec16VaapiEncoderHEVC15addSliceHeadersERKSt10shared_ptrINS_19VaapiEncPictureHEVCEE
libyami.so.1:_ZNK14YamiMediaCodec16VaapiEncoderHEVC17fillReferenceListEP30_VAEncSliceParameterBufferHEVC
libyami.so.1:_ZNK14YamiMediaCodec16VaapiEncoderHEVC20addPackedSliceHeaderERKSt10shared_ptrINS_19VaapiEncPictureHEVCEEPK30_VAEncSliceParameterBufferHEVCj
libyami.so.1:_ZNK14YamiMediaCodec16VaapiEncoderHEVC4fillEP32_VAEncPictureParameterBufferHEVCRKSt10shared_ptrINS_19VaapiEncPictureHEVCEERKS3_INS_12VaapiSurfaceEE
libyami.so.1:_ZNK14YamiMediaCodec16VaapiEncoderHEVC4fillEP33_VAEncSequenceParameterBufferHEVC
libyami.so.1:_ZNK14YamiMediaCodec16VaapiEncoderJpeg15addSliceHeadersERKSt10shared_ptrINS_19VaapiEncPictureJPEGEE
libyami.so.1:_ZNK14YamiMediaCodec16VaapiEncoderJpeg4fillEP20_VAQMatrixBufferJPEG
libyami.so.1:_ZNK14YamiMediaCodec16VaapiEncoderJpeg4fillEP30_VAEncSliceParameterBufferJPEG
libyami.so.1:_ZNK14YamiMediaCodec16VaapiEncoderJpeg4fillEP32_VAEncPictureParameterBufferJPEGRKSt10shared_ptrINS_19VaapiEncPictureJPEGEERKS3_INS_12VaapiSurfaceEE
libyami.so.1:_ZNK14YamiMediaCodec16VaapiEncoderJpeg4fillEP33_VAHuffmanTableBufferJPEGBaseline
libyami.so.1:_ZNSt17_Function_handlerIF10YamiStatusRKSt10shared_ptrIN14YamiMediaCodec19VaapiDecPictureH264EEESt5_BindIFMNS2_16VaapiDecoderH264EFS0_S6_EPS9_St12_PlaceholderILi1EEEEE10_M_managerERSt9_Any_dataRKSI_St18_Manager_operation
libyami.so.1:_ZNSt17_Function_handlerIF10YamiStatusRKSt10shared_ptrIN14YamiMediaCodec19VaapiDecPictureH264EEESt5_BindIFMNS2_16VaapiDecoderH264EFS0_S6_EPS9_St12_PlaceholderILi1EEEEE9_M_invokeERKSt9_Any_dataS6_
libyami.so.1:_ZNSt17_Function_handlerIF10YamiStatusRKSt10shared_ptrIN14YamiMediaCodec19VaapiDecPictureH265EEESt5_BindIFMNS2_16VaapiDecoderH265EFS0_S6_EPS9_St12_PlaceholderILi1EEEEE10_M_managerERSt9_Any_dataRKSI_St18_Manager_operation
libyami.so.1:_ZNSt17_Function_handlerIF10YamiStatusRKSt10shared_ptrIN14YamiMediaCodec19VaapiDecPictureH265EEESt5_BindIFMNS2_16VaapiDecoderH265EFS0_S6_EPS9_St12_PlaceholderILi1EEEEE9_M_invokeERKSt9_Any_dataS6_
libyami.so.1:_ZNSt17_Function_handlerIF10YamiStatusvESt5_BindIFMN14YamiMediaCodec16VaapiDecoderJPEGEFS0_P17VideoConfigBufferESt17reference_wrapperIS4_ES6_EEE10_M_managerERSt9_Any_dataRKSE_St18_Manager_operation
libyami.so.1:_ZNSt17_Function_handlerIF10YamiStatusvESt5_BindIFMN14YamiMediaCodec16VaapiDecoderJPEGEFS0_P17VideoConfigBufferESt17reference_wrapperIS4_ES6_EEE9_M_invokeERKSt9_Any_data
libyami.so.1:_ZNSt17_Function_handlerIF10YamiStatusvESt5_BindIFMN14YamiMediaCodec16VaapiDecoderJPEGEFS0_vESt17reference_wrapperIS4_EEEE10_M_managerERSt9_Any_dataRKSC_St18_Manager_operation
libyami.so.1:_ZNSt17_Function_handlerIF10YamiStatusvESt5_BindIFMN14YamiMediaCodec16VaapiDecoderJPEGEFS0_vESt17reference_wrapperIS4_EEEE9_M_invokeERKSt9_Any_data
libyami.so.1:_ZNSt17_Function_handlerIF10YamiStatusvESt5_BindIFMN14YamiMediaCodec24VaapiEncStreamHeaderH264EFS0_P20VideoEncOutputBufferESt10shared_ptrIS4_ES6_EEE10_M_managerERSt9_Any_dataRKSE_St18_Manager_operation
libyami.so.1:_ZNSt17_Function_handlerIF10YamiStatusvESt5_BindIFMN14YamiMediaCodec24VaapiEncStreamHeaderH264EFS0_P20VideoEncOutputBufferESt10shared_ptrIS4_ES6_EEE9_M_invokeERKSt9_Any_data
libyami.so.1:_ZNSt17_Function_handlerIF10YamiStatusvESt5_BindIFMN14YamiMediaCodec24VaapiEncStreamHeaderHEVCEFS0_P20VideoEncOutputBufferESt10shared_ptrIS4_ES6_EEE10_M_managerERSt9_Any_dataRKSE_St18_Manager_operation
libyami.so.1:_ZNSt17_Function_handlerIF10YamiStatusvESt5_BindIFMN14YamiMediaCodec24VaapiEncStreamHeaderHEVCEFS0_P20VideoEncOutputBufferESt10shared_ptrIS4_ES6_EEE9_M_invokeERKSt9_Any_data
libyami.so.1:_ZNSt17_Function_handlerIF10YamiStatusvESt5_BindIFPFS0_PN14YamiMediaCodec19VaapiEncPictureH264EP20VideoEncOutputBufferES5_S7_EEE10_M_managerERSt9_Any_dataRKSD_St18_Manager_operation
libyami.so.1:_ZNSt17_Function_handlerIF10YamiStatusvESt5_BindIFPFS0_PN14YamiMediaCodec19VaapiEncPictureH264EP20VideoEncOutputBufferES5_S7_EEE9_M_invokeERKSt9_Any_data
libyami.so.1:_ZNSt17_Function_handlerIF10YamiStatusvESt5_BindIFPFS0_PN14YamiMediaCodec19VaapiEncPictureHEVCEP20VideoEncOutputBufferES5_S7_EEE10_M_managerERSt9_Any_dataRKSD_St18_Manager_operation
libyami.so.1:_ZNSt17_Function_handlerIF10YamiStatusvESt5_BindIFPFS0_PN14YamiMediaCodec19VaapiEncPictureHEVCEP20VideoEncOutputBufferES5_S7_EEE9_M_invokeERKSt9_Any_data
libyami.so.1:_ZNSt17_Function_handlerIFN10YamiParser4JPEG6Parser14CallbackResultEvESt5_BindIFMN14YamiMediaCodec16VaapiDecoderJPEG4ImplEFS3_vESt17reference_wrapperIS8_EEEE10_M_managerERSt9_Any_dataRKSG_St18_Manager_operation
libyami.so.1:_ZNSt17_Function_handlerIFN10YamiParser4JPEG6Parser14CallbackResultEvESt5_BindIFMN14YamiMediaCodec16VaapiDecoderJPEG4ImplEFS3_vESt17reference_wrapperIS8_EEEE9_M_invokeERKSt9_Any_data
libyami.so.1:_ZNSt17_Function_handlerIFvRKSt10shared_ptrIN14YamiMediaCodec19VaapiDecPictureH264EEEPS6_E10_M_managerERSt9_Any_dataRKS9_St18_Manager_operation
libyami.so.1:_ZNSt17_Function_handlerIFvRKSt10shared_ptrIN14YamiMediaCodec19VaapiDecPictureH264EEEPS6_E9_M_invokeERKSt9_Any_dataS5_
libyami.so.1:_ZNSt17_Function_handlerIFvRKSt10shared_ptrIN14YamiMediaCodec19VaapiDecPictureH264EEESt5_BindIFMNS1_16VaapiDecoderH2643DPBEFvS5_EPS9_St12_PlaceholderILi1EEEEE10_M_managerERSt9_Any_dataRKSI_St18_Manager_operation
libyami.so.1:_ZNSt17_Function_handlerIFvRKSt10shared_ptrIN14YamiMediaCodec19VaapiDecPictureH264EEESt5_BindIFMNS1_16VaapiDecoderH2643DPBEFvS5_EPS9_St12_PlaceholderILi1EEEEE9_M_invokeERKSt9_Any_dataS5_
libyami.so.1:_ZNSt17_Function_handlerIFvRKSt10shared_ptrIN14YamiMediaCodec19VaapiDecPictureH264EEESt5_BindIFPFvS5_iESt12_PlaceholderILi1EEiEEE10_M_managerERSt9_Any_dataRKSF_St18_Manager_operation
libyami.so.1:_ZNSt17_Function_handlerIFvRKSt10shared_ptrIN14YamiMediaCodec19VaapiDecPictureH264EEESt5_BindIFPFvS5_iESt12_PlaceholderILi1EEiEEE9_M_invokeERKSt9_Any_dataS5_
libyami.so.1:_ZNSt17_Function_handlerIFvRKSt10shared_ptrIN14YamiMediaCodec19VaapiDecPictureH265EEEPS6_E10_M_managerERSt9_Any_dataRKS9_St18_Manager_operation
libyami.so.1:_ZNSt17_Function_handlerIFvRKSt10shared_ptrIN14YamiMediaCodec19VaapiDecPictureH265EEEPS6_E9_M_invokeERKSt9_Any_dataS5_
libyami.so.1:_ZNSt17_Function_handlerIFvvESt5_BindIFMN14YamiMediaCodec6ThreadEFvRKSt8functionIS0_ERbEPS3_St17reference_wrapperIS6_ESC_IbEEEE10_M_managerERSt9_Any_dataRKSI_St18_Manager_operation
libyami.so.1:_ZNSt17_Function_handlerIFvvESt5_BindIFMN14YamiMediaCodec6ThreadEFvRKSt8functionIS0_ERbEPS3_St17reference_wrapperIS6_ESC_IbEEEE9_M_invokeERKSt9_Any_data
libyami.so.1:clamp
libyami.so.1:createDecoder
libyami.so.1:createEncoder
libyami.so.1:decodeDecode
libyami.so.1:decodeFlush
libyami.so.1:decodeGetFormatInfo
libyami.so.1:decodeGetOutput
libyami.so.1:decodeReset
libyami.so.1:decodeSetNativeDisplay
libyami.so.1:decodeStart
libyami.so.1:decodeStop
libyami.so.1:encodeEncode
libyami.so.1:encodeEncodeRawData
libyami.so.1:encodeGetMaxOutSize
libyami.so.1:encodeGetOutput
libyami.so.1:encodeGetParameters
libyami.so.1:encodeSetNativeDisplay
libyami.so.1:encodeSetParameters
libyami.so.1:encodeStart
libyami.so.1:encodeStop
libyami.so.1:getConfig
libyami.so.1:getStatistics
libyami.so.1:libyami_vp8dx_bool_decoder_fill
libyami.so.1:libyami_vp8dx_start_decode
libyami.so.1:releaseDecoder
libyami.so.1:releaseEncoder
libyami.so.1:releaseLock
libyami.so.1:setConfig
libyami.so.1:vp9_ac_quant
libyami.so.1:vp9_dc_quant
libyami.so.1:vp9_parse_frame_header
libyami.so.1:vp9_parser_free
libyami.so.1:vp9_parser_new
libyami.so.1:yamiGetApiVersion
